
target/aarch64-unknown-none/release/at-os:     file format elf64-littleaarch64


Disassembly of section .text:

ffffff8000080000 <_start>:
ffffff8000080000:	58000680 	ldr	x0, ffffff80000800d0 <el1_start+0xc>
ffffff8000080004:	9100001f 	mov	sp, x0
ffffff8000080008:	10003fc0 	adr	x0, ffffff8000080800 <el1_vectors>
ffffff800008000c:	d518c000 	msr	vbar_el1, x0
ffffff8000080010:	d5033fdf 	isb
ffffff8000080014:	d5381040 	mrs	x0, cpacr_el1
ffffff8000080018:	b26c0400 	orr	x0, x0, #0x300000
ffffff800008001c:	d5181040 	msr	cpacr_el1, x0
ffffff8000080020:	d5033fdf 	isb
ffffff8000080024:	580005a2 	ldr	x2, ffffff80000800d8 <el1_start+0x14>
ffffff8000080028:	580005c0 	ldr	x0, ffffff80000800e0 <el1_start+0x1c>
ffffff800008002c:	8a020000 	and	x0, x0, x2
ffffff8000080030:	f9400000 	ldr	x0, [x0]
ffffff8000080034:	d5182040 	msr	tcr_el1, x0
ffffff8000080038:	58000580 	ldr	x0, ffffff80000800e8 <el1_start+0x24>
ffffff800008003c:	8a020000 	and	x0, x0, x2
ffffff8000080040:	f9400000 	ldr	x0, [x0]
ffffff8000080044:	d518a200 	msr	mair_el1, x0
ffffff8000080048:	d5033fdf 	isb
ffffff800008004c:	58000521 	ldr	x1, ffffff80000800f0 <el1_start+0x2c>
ffffff8000080050:	8a020021 	and	x1, x1, x2
ffffff8000080054:	b2400421 	orr	x1, x1, #0x3
ffffff8000080058:	58000500 	ldr	x0, ffffff80000800f8 <el1_start+0x34>
ffffff800008005c:	8a020000 	and	x0, x0, x2
ffffff8000080060:	f9000001 	str	x1, [x0]
ffffff8000080064:	d5033a9f 	dsb	ishst
ffffff8000080068:	d5182020 	msr	ttbr1_el1, x0
ffffff800008006c:	d5182000 	msr	ttbr0_el1, x0
ffffff8000080070:	d5033fdf 	isb
ffffff8000080074:	d5381000 	mrs	x0, sctlr_el1
ffffff8000080078:	58000441 	ldr	x1, ffffff8000080100 <el1_start+0x3c>
ffffff800008007c:	8a020021 	and	x1, x1, x2
ffffff8000080080:	f9400021 	ldr	x1, [x1]
ffffff8000080084:	aa010000 	orr	x0, x0, x1
ffffff8000080088:	d5181000 	msr	sctlr_el1, x0
ffffff800008008c:	d5033fdf 	isb
ffffff8000080090:	d5384240 	mrs	x0, currentel
ffffff8000080094:	f100201f 	cmp	x0, #0x8
ffffff8000080098:	54000161 	b.ne	ffffff80000800c4 <el1_start>  // b.any
ffffff800008009c:	580001a0 	ldr	x0, ffffff80000800d0 <el1_start+0xc>
ffffff80000800a0:	d51c4100 	msr	sp_el1, x0
ffffff80000800a4:	d2b00000 	mov	x0, #0x80000000            	// #2147483648
ffffff80000800a8:	d51c1100 	msr	hcr_el2, x0
ffffff80000800ac:	d28000a0 	mov	x0, #0x5                   	// #5
ffffff80000800b0:	b27a0c00 	orr	x0, x0, #0x3c0
ffffff80000800b4:	d51c4000 	msr	spsr_el2, x0
ffffff80000800b8:	10013040 	adr	x0, ffffff80000826c0 <_rust_main>
ffffff80000800bc:	d51c4020 	msr	elr_el2, x0
ffffff80000800c0:	d69f03e0 	eret

ffffff80000800c4 <el1_start>:
ffffff80000800c4:	9400097f 	bl	ffffff80000826c0 <_rust_main>
ffffff80000800c8:	d503205f 	wfe
ffffff80000800cc:	17ffffff 	b	ffffff80000800c8 <el1_start+0x4>
ffffff80000800d0:	00097000 	.word	0x00097000
ffffff80000800d4:	ffffff80 	.word	0xffffff80
ffffff80000800d8:	3fffffff 	.word	0x3fffffff
ffffff80000800dc:	00000000 	.word	0x00000000
ffffff80000800e0:	00085698 	.word	0x00085698
ffffff80000800e4:	ffffff80 	.word	0xffffff80
ffffff80000800e8:	00085688 	.word	0x00085688
ffffff80000800ec:	ffffff80 	.word	0xffffff80
ffffff80000800f0:	0008e000 	.word	0x0008e000
ffffff80000800f4:	ffffff80 	.word	0xffffff80
ffffff80000800f8:	0008d000 	.word	0x0008d000
ffffff80000800fc:	ffffff80 	.word	0xffffff80
ffffff8000080100:	00085690 	.word	0x00085690
ffffff8000080104:	ffffff80 	.word	0xffffff80
	...

ffffff8000080800 <el1_vectors>:
ffffff8000080800:	14000200 	b	ffffff8000081000 <el11t_sync>
	...
ffffff8000080880:	14000215 	b	ffffff80000810d4 <el11t_irq>
	...
ffffff8000080900:	1400022a 	b	ffffff80000811a8 <el11t_fiq>
	...
ffffff8000080980:	1400023f 	b	ffffff800008127c <el11t_serror>
	...
ffffff8000080a00:	14000254 	b	ffffff8000081350 <el11h_sync>
	...
ffffff8000080a80:	14000269 	b	ffffff8000081424 <el11h_irq>
	...
ffffff8000080b00:	1400027e 	b	ffffff80000814f8 <el11h_fiq>
	...
ffffff8000080b80:	14000293 	b	ffffff80000815cc <el11h_serror>
	...
ffffff8000080c00:	140002a8 	b	ffffff80000816a0 <el1064_sync>
	...
ffffff8000080c80:	140002bd 	b	ffffff8000081774 <el1064_irq>
	...
ffffff8000080d00:	140002d2 	b	ffffff8000081848 <el1064_fiq>
	...
ffffff8000080d80:	140002e7 	b	ffffff800008191c <el1064_serror>
	...
ffffff8000080e00:	140002fc 	b	ffffff80000819f0 <el1032_sync>
	...
ffffff8000080e80:	14000311 	b	ffffff8000081ac4 <el1032_irq>
	...
ffffff8000080f00:	14000326 	b	ffffff8000081b98 <el1032_fiq>
	...
ffffff8000080f80:	1400033b 	b	ffffff8000081c6c <el1032_serror>
	...

ffffff8000081000 <el11t_sync>:
ffffff8000081000:	d10483ff 	sub	sp, sp, #0x120
ffffff8000081004:	a90087e0 	stp	x0, x1, [sp, #8]
ffffff8000081008:	a9018fe2 	stp	x2, x3, [sp, #24]
ffffff800008100c:	a90297e4 	stp	x4, x5, [sp, #40]
ffffff8000081010:	a9039fe6 	stp	x6, x7, [sp, #56]
ffffff8000081014:	a904a7e8 	stp	x8, x9, [sp, #72]
ffffff8000081018:	a905afea 	stp	x10, x11, [sp, #88]
ffffff800008101c:	a906b7ec 	stp	x12, x13, [sp, #104]
ffffff8000081020:	a907bfee 	stp	x14, x15, [sp, #120]
ffffff8000081024:	a908c7f0 	stp	x16, x17, [sp, #136]
ffffff8000081028:	a909cff2 	stp	x18, x19, [sp, #152]
ffffff800008102c:	a90ad7f4 	stp	x20, x21, [sp, #168]
ffffff8000081030:	a90bdff6 	stp	x22, x23, [sp, #184]
ffffff8000081034:	a90ce7f8 	stp	x24, x25, [sp, #200]
ffffff8000081038:	a90deffa 	stp	x26, x27, [sp, #216]
ffffff800008103c:	a90ef7fc 	stp	x28, x29, [sp, #232]
ffffff8000081040:	f9007ffe 	str	x30, [sp, #248]
ffffff8000081044:	d5384020 	mrs	x0, elr_el1
ffffff8000081048:	f90083e0 	str	x0, [sp, #256]
ffffff800008104c:	d5384000 	mrs	x0, spsr_el1
ffffff8000081050:	f90087e0 	str	x0, [sp, #264]
ffffff8000081054:	d5385200 	mrs	x0, esr_el1
ffffff8000081058:	f9008be0 	str	x0, [sp, #272]
ffffff800008105c:	d5386000 	mrs	x0, far_el1
ffffff8000081060:	f9008fe0 	str	x0, [sp, #280]
ffffff8000081064:	52800009 	mov	w9, #0x0                   	// #0
ffffff8000081068:	390003e9 	strb	w9, [sp]
ffffff800008106c:	52800009 	mov	w9, #0x0                   	// #0
ffffff8000081070:	390007e9 	strb	w9, [sp, #1]
ffffff8000081074:	910003e0 	mov	x0, sp
ffffff8000081078:	94000679 	bl	ffffff8000082a5c <handle_exception_el1>
ffffff800008107c:	f94083e1 	ldr	x1, [sp, #256]
ffffff8000081080:	d5184021 	msr	elr_el1, x1
ffffff8000081084:	f94087e1 	ldr	x1, [sp, #264]
ffffff8000081088:	d5184001 	msr	spsr_el1, x1
ffffff800008108c:	a94087e0 	ldp	x0, x1, [sp, #8]
ffffff8000081090:	a9418fe2 	ldp	x2, x3, [sp, #24]
ffffff8000081094:	a94297e4 	ldp	x4, x5, [sp, #40]
ffffff8000081098:	a9439fe6 	ldp	x6, x7, [sp, #56]
ffffff800008109c:	a944a7e8 	ldp	x8, x9, [sp, #72]
ffffff80000810a0:	a945afea 	ldp	x10, x11, [sp, #88]
ffffff80000810a4:	a946b7ec 	ldp	x12, x13, [sp, #104]
ffffff80000810a8:	a947bfee 	ldp	x14, x15, [sp, #120]
ffffff80000810ac:	a948c7f0 	ldp	x16, x17, [sp, #136]
ffffff80000810b0:	a949cff2 	ldp	x18, x19, [sp, #152]
ffffff80000810b4:	a94ad7f4 	ldp	x20, x21, [sp, #168]
ffffff80000810b8:	a94bdff6 	ldp	x22, x23, [sp, #184]
ffffff80000810bc:	a94ce7f8 	ldp	x24, x25, [sp, #200]
ffffff80000810c0:	a94deffa 	ldp	x26, x27, [sp, #216]
ffffff80000810c4:	a94ef7fc 	ldp	x28, x29, [sp, #232]
ffffff80000810c8:	f9407ffe 	ldr	x30, [sp, #248]
ffffff80000810cc:	910483ff 	add	sp, sp, #0x120
ffffff80000810d0:	d69f03e0 	eret

ffffff80000810d4 <el11t_irq>:
ffffff80000810d4:	d10483ff 	sub	sp, sp, #0x120
ffffff80000810d8:	a90087e0 	stp	x0, x1, [sp, #8]
ffffff80000810dc:	a9018fe2 	stp	x2, x3, [sp, #24]
ffffff80000810e0:	a90297e4 	stp	x4, x5, [sp, #40]
ffffff80000810e4:	a9039fe6 	stp	x6, x7, [sp, #56]
ffffff80000810e8:	a904a7e8 	stp	x8, x9, [sp, #72]
ffffff80000810ec:	a905afea 	stp	x10, x11, [sp, #88]
ffffff80000810f0:	a906b7ec 	stp	x12, x13, [sp, #104]
ffffff80000810f4:	a907bfee 	stp	x14, x15, [sp, #120]
ffffff80000810f8:	a908c7f0 	stp	x16, x17, [sp, #136]
ffffff80000810fc:	a909cff2 	stp	x18, x19, [sp, #152]
ffffff8000081100:	a90ad7f4 	stp	x20, x21, [sp, #168]
ffffff8000081104:	a90bdff6 	stp	x22, x23, [sp, #184]
ffffff8000081108:	a90ce7f8 	stp	x24, x25, [sp, #200]
ffffff800008110c:	a90deffa 	stp	x26, x27, [sp, #216]
ffffff8000081110:	a90ef7fc 	stp	x28, x29, [sp, #232]
ffffff8000081114:	f9007ffe 	str	x30, [sp, #248]
ffffff8000081118:	d5384020 	mrs	x0, elr_el1
ffffff800008111c:	f90083e0 	str	x0, [sp, #256]
ffffff8000081120:	d5384000 	mrs	x0, spsr_el1
ffffff8000081124:	f90087e0 	str	x0, [sp, #264]
ffffff8000081128:	d5385200 	mrs	x0, esr_el1
ffffff800008112c:	f9008be0 	str	x0, [sp, #272]
ffffff8000081130:	d5386000 	mrs	x0, far_el1
ffffff8000081134:	f9008fe0 	str	x0, [sp, #280]
ffffff8000081138:	52800029 	mov	w9, #0x1                   	// #1
ffffff800008113c:	390003e9 	strb	w9, [sp]
ffffff8000081140:	52800009 	mov	w9, #0x0                   	// #0
ffffff8000081144:	390007e9 	strb	w9, [sp, #1]
ffffff8000081148:	910003e0 	mov	x0, sp
ffffff800008114c:	94000644 	bl	ffffff8000082a5c <handle_exception_el1>
ffffff8000081150:	f94083e1 	ldr	x1, [sp, #256]
ffffff8000081154:	d5184021 	msr	elr_el1, x1
ffffff8000081158:	f94087e1 	ldr	x1, [sp, #264]
ffffff800008115c:	d5184001 	msr	spsr_el1, x1
ffffff8000081160:	a94087e0 	ldp	x0, x1, [sp, #8]
ffffff8000081164:	a9418fe2 	ldp	x2, x3, [sp, #24]
ffffff8000081168:	a94297e4 	ldp	x4, x5, [sp, #40]
ffffff800008116c:	a9439fe6 	ldp	x6, x7, [sp, #56]
ffffff8000081170:	a944a7e8 	ldp	x8, x9, [sp, #72]
ffffff8000081174:	a945afea 	ldp	x10, x11, [sp, #88]
ffffff8000081178:	a946b7ec 	ldp	x12, x13, [sp, #104]
ffffff800008117c:	a947bfee 	ldp	x14, x15, [sp, #120]
ffffff8000081180:	a948c7f0 	ldp	x16, x17, [sp, #136]
ffffff8000081184:	a949cff2 	ldp	x18, x19, [sp, #152]
ffffff8000081188:	a94ad7f4 	ldp	x20, x21, [sp, #168]
ffffff800008118c:	a94bdff6 	ldp	x22, x23, [sp, #184]
ffffff8000081190:	a94ce7f8 	ldp	x24, x25, [sp, #200]
ffffff8000081194:	a94deffa 	ldp	x26, x27, [sp, #216]
ffffff8000081198:	a94ef7fc 	ldp	x28, x29, [sp, #232]
ffffff800008119c:	f9407ffe 	ldr	x30, [sp, #248]
ffffff80000811a0:	910483ff 	add	sp, sp, #0x120
ffffff80000811a4:	d69f03e0 	eret

ffffff80000811a8 <el11t_fiq>:
ffffff80000811a8:	d10483ff 	sub	sp, sp, #0x120
ffffff80000811ac:	a90087e0 	stp	x0, x1, [sp, #8]
ffffff80000811b0:	a9018fe2 	stp	x2, x3, [sp, #24]
ffffff80000811b4:	a90297e4 	stp	x4, x5, [sp, #40]
ffffff80000811b8:	a9039fe6 	stp	x6, x7, [sp, #56]
ffffff80000811bc:	a904a7e8 	stp	x8, x9, [sp, #72]
ffffff80000811c0:	a905afea 	stp	x10, x11, [sp, #88]
ffffff80000811c4:	a906b7ec 	stp	x12, x13, [sp, #104]
ffffff80000811c8:	a907bfee 	stp	x14, x15, [sp, #120]
ffffff80000811cc:	a908c7f0 	stp	x16, x17, [sp, #136]
ffffff80000811d0:	a909cff2 	stp	x18, x19, [sp, #152]
ffffff80000811d4:	a90ad7f4 	stp	x20, x21, [sp, #168]
ffffff80000811d8:	a90bdff6 	stp	x22, x23, [sp, #184]
ffffff80000811dc:	a90ce7f8 	stp	x24, x25, [sp, #200]
ffffff80000811e0:	a90deffa 	stp	x26, x27, [sp, #216]
ffffff80000811e4:	a90ef7fc 	stp	x28, x29, [sp, #232]
ffffff80000811e8:	f9007ffe 	str	x30, [sp, #248]
ffffff80000811ec:	d5384020 	mrs	x0, elr_el1
ffffff80000811f0:	f90083e0 	str	x0, [sp, #256]
ffffff80000811f4:	d5384000 	mrs	x0, spsr_el1
ffffff80000811f8:	f90087e0 	str	x0, [sp, #264]
ffffff80000811fc:	d5385200 	mrs	x0, esr_el1
ffffff8000081200:	f9008be0 	str	x0, [sp, #272]
ffffff8000081204:	d5386000 	mrs	x0, far_el1
ffffff8000081208:	f9008fe0 	str	x0, [sp, #280]
ffffff800008120c:	52800049 	mov	w9, #0x2                   	// #2
ffffff8000081210:	390003e9 	strb	w9, [sp]
ffffff8000081214:	52800009 	mov	w9, #0x0                   	// #0
ffffff8000081218:	390007e9 	strb	w9, [sp, #1]
ffffff800008121c:	910003e0 	mov	x0, sp
ffffff8000081220:	9400060f 	bl	ffffff8000082a5c <handle_exception_el1>
ffffff8000081224:	f94083e1 	ldr	x1, [sp, #256]
ffffff8000081228:	d5184021 	msr	elr_el1, x1
ffffff800008122c:	f94087e1 	ldr	x1, [sp, #264]
ffffff8000081230:	d5184001 	msr	spsr_el1, x1
ffffff8000081234:	a94087e0 	ldp	x0, x1, [sp, #8]
ffffff8000081238:	a9418fe2 	ldp	x2, x3, [sp, #24]
ffffff800008123c:	a94297e4 	ldp	x4, x5, [sp, #40]
ffffff8000081240:	a9439fe6 	ldp	x6, x7, [sp, #56]
ffffff8000081244:	a944a7e8 	ldp	x8, x9, [sp, #72]
ffffff8000081248:	a945afea 	ldp	x10, x11, [sp, #88]
ffffff800008124c:	a946b7ec 	ldp	x12, x13, [sp, #104]
ffffff8000081250:	a947bfee 	ldp	x14, x15, [sp, #120]
ffffff8000081254:	a948c7f0 	ldp	x16, x17, [sp, #136]
ffffff8000081258:	a949cff2 	ldp	x18, x19, [sp, #152]
ffffff800008125c:	a94ad7f4 	ldp	x20, x21, [sp, #168]
ffffff8000081260:	a94bdff6 	ldp	x22, x23, [sp, #184]
ffffff8000081264:	a94ce7f8 	ldp	x24, x25, [sp, #200]
ffffff8000081268:	a94deffa 	ldp	x26, x27, [sp, #216]
ffffff800008126c:	a94ef7fc 	ldp	x28, x29, [sp, #232]
ffffff8000081270:	f9407ffe 	ldr	x30, [sp, #248]
ffffff8000081274:	910483ff 	add	sp, sp, #0x120
ffffff8000081278:	d69f03e0 	eret

ffffff800008127c <el11t_serror>:
ffffff800008127c:	d10483ff 	sub	sp, sp, #0x120
ffffff8000081280:	a90087e0 	stp	x0, x1, [sp, #8]
ffffff8000081284:	a9018fe2 	stp	x2, x3, [sp, #24]
ffffff8000081288:	a90297e4 	stp	x4, x5, [sp, #40]
ffffff800008128c:	a9039fe6 	stp	x6, x7, [sp, #56]
ffffff8000081290:	a904a7e8 	stp	x8, x9, [sp, #72]
ffffff8000081294:	a905afea 	stp	x10, x11, [sp, #88]
ffffff8000081298:	a906b7ec 	stp	x12, x13, [sp, #104]
ffffff800008129c:	a907bfee 	stp	x14, x15, [sp, #120]
ffffff80000812a0:	a908c7f0 	stp	x16, x17, [sp, #136]
ffffff80000812a4:	a909cff2 	stp	x18, x19, [sp, #152]
ffffff80000812a8:	a90ad7f4 	stp	x20, x21, [sp, #168]
ffffff80000812ac:	a90bdff6 	stp	x22, x23, [sp, #184]
ffffff80000812b0:	a90ce7f8 	stp	x24, x25, [sp, #200]
ffffff80000812b4:	a90deffa 	stp	x26, x27, [sp, #216]
ffffff80000812b8:	a90ef7fc 	stp	x28, x29, [sp, #232]
ffffff80000812bc:	f9007ffe 	str	x30, [sp, #248]
ffffff80000812c0:	d5384020 	mrs	x0, elr_el1
ffffff80000812c4:	f90083e0 	str	x0, [sp, #256]
ffffff80000812c8:	d5384000 	mrs	x0, spsr_el1
ffffff80000812cc:	f90087e0 	str	x0, [sp, #264]
ffffff80000812d0:	d5385200 	mrs	x0, esr_el1
ffffff80000812d4:	f9008be0 	str	x0, [sp, #272]
ffffff80000812d8:	d5386000 	mrs	x0, far_el1
ffffff80000812dc:	f9008fe0 	str	x0, [sp, #280]
ffffff80000812e0:	52800069 	mov	w9, #0x3                   	// #3
ffffff80000812e4:	390003e9 	strb	w9, [sp]
ffffff80000812e8:	52800009 	mov	w9, #0x0                   	// #0
ffffff80000812ec:	390007e9 	strb	w9, [sp, #1]
ffffff80000812f0:	910003e0 	mov	x0, sp
ffffff80000812f4:	940005da 	bl	ffffff8000082a5c <handle_exception_el1>
ffffff80000812f8:	f94083e1 	ldr	x1, [sp, #256]
ffffff80000812fc:	d5184021 	msr	elr_el1, x1
ffffff8000081300:	f94087e1 	ldr	x1, [sp, #264]
ffffff8000081304:	d5184001 	msr	spsr_el1, x1
ffffff8000081308:	a94087e0 	ldp	x0, x1, [sp, #8]
ffffff800008130c:	a9418fe2 	ldp	x2, x3, [sp, #24]
ffffff8000081310:	a94297e4 	ldp	x4, x5, [sp, #40]
ffffff8000081314:	a9439fe6 	ldp	x6, x7, [sp, #56]
ffffff8000081318:	a944a7e8 	ldp	x8, x9, [sp, #72]
ffffff800008131c:	a945afea 	ldp	x10, x11, [sp, #88]
ffffff8000081320:	a946b7ec 	ldp	x12, x13, [sp, #104]
ffffff8000081324:	a947bfee 	ldp	x14, x15, [sp, #120]
ffffff8000081328:	a948c7f0 	ldp	x16, x17, [sp, #136]
ffffff800008132c:	a949cff2 	ldp	x18, x19, [sp, #152]
ffffff8000081330:	a94ad7f4 	ldp	x20, x21, [sp, #168]
ffffff8000081334:	a94bdff6 	ldp	x22, x23, [sp, #184]
ffffff8000081338:	a94ce7f8 	ldp	x24, x25, [sp, #200]
ffffff800008133c:	a94deffa 	ldp	x26, x27, [sp, #216]
ffffff8000081340:	a94ef7fc 	ldp	x28, x29, [sp, #232]
ffffff8000081344:	f9407ffe 	ldr	x30, [sp, #248]
ffffff8000081348:	910483ff 	add	sp, sp, #0x120
ffffff800008134c:	d69f03e0 	eret

ffffff8000081350 <el11h_sync>:
ffffff8000081350:	d10483ff 	sub	sp, sp, #0x120
ffffff8000081354:	a90087e0 	stp	x0, x1, [sp, #8]
ffffff8000081358:	a9018fe2 	stp	x2, x3, [sp, #24]
ffffff800008135c:	a90297e4 	stp	x4, x5, [sp, #40]
ffffff8000081360:	a9039fe6 	stp	x6, x7, [sp, #56]
ffffff8000081364:	a904a7e8 	stp	x8, x9, [sp, #72]
ffffff8000081368:	a905afea 	stp	x10, x11, [sp, #88]
ffffff800008136c:	a906b7ec 	stp	x12, x13, [sp, #104]
ffffff8000081370:	a907bfee 	stp	x14, x15, [sp, #120]
ffffff8000081374:	a908c7f0 	stp	x16, x17, [sp, #136]
ffffff8000081378:	a909cff2 	stp	x18, x19, [sp, #152]
ffffff800008137c:	a90ad7f4 	stp	x20, x21, [sp, #168]
ffffff8000081380:	a90bdff6 	stp	x22, x23, [sp, #184]
ffffff8000081384:	a90ce7f8 	stp	x24, x25, [sp, #200]
ffffff8000081388:	a90deffa 	stp	x26, x27, [sp, #216]
ffffff800008138c:	a90ef7fc 	stp	x28, x29, [sp, #232]
ffffff8000081390:	f9007ffe 	str	x30, [sp, #248]
ffffff8000081394:	d5384020 	mrs	x0, elr_el1
ffffff8000081398:	f90083e0 	str	x0, [sp, #256]
ffffff800008139c:	d5384000 	mrs	x0, spsr_el1
ffffff80000813a0:	f90087e0 	str	x0, [sp, #264]
ffffff80000813a4:	d5385200 	mrs	x0, esr_el1
ffffff80000813a8:	f9008be0 	str	x0, [sp, #272]
ffffff80000813ac:	d5386000 	mrs	x0, far_el1
ffffff80000813b0:	f9008fe0 	str	x0, [sp, #280]
ffffff80000813b4:	52800009 	mov	w9, #0x0                   	// #0
ffffff80000813b8:	390003e9 	strb	w9, [sp]
ffffff80000813bc:	52800029 	mov	w9, #0x1                   	// #1
ffffff80000813c0:	390007e9 	strb	w9, [sp, #1]
ffffff80000813c4:	910003e0 	mov	x0, sp
ffffff80000813c8:	940005a5 	bl	ffffff8000082a5c <handle_exception_el1>
ffffff80000813cc:	f94083e1 	ldr	x1, [sp, #256]
ffffff80000813d0:	d5184021 	msr	elr_el1, x1
ffffff80000813d4:	f94087e1 	ldr	x1, [sp, #264]
ffffff80000813d8:	d5184001 	msr	spsr_el1, x1
ffffff80000813dc:	a94087e0 	ldp	x0, x1, [sp, #8]
ffffff80000813e0:	a9418fe2 	ldp	x2, x3, [sp, #24]
ffffff80000813e4:	a94297e4 	ldp	x4, x5, [sp, #40]
ffffff80000813e8:	a9439fe6 	ldp	x6, x7, [sp, #56]
ffffff80000813ec:	a944a7e8 	ldp	x8, x9, [sp, #72]
ffffff80000813f0:	a945afea 	ldp	x10, x11, [sp, #88]
ffffff80000813f4:	a946b7ec 	ldp	x12, x13, [sp, #104]
ffffff80000813f8:	a947bfee 	ldp	x14, x15, [sp, #120]
ffffff80000813fc:	a948c7f0 	ldp	x16, x17, [sp, #136]
ffffff8000081400:	a949cff2 	ldp	x18, x19, [sp, #152]
ffffff8000081404:	a94ad7f4 	ldp	x20, x21, [sp, #168]
ffffff8000081408:	a94bdff6 	ldp	x22, x23, [sp, #184]
ffffff800008140c:	a94ce7f8 	ldp	x24, x25, [sp, #200]
ffffff8000081410:	a94deffa 	ldp	x26, x27, [sp, #216]
ffffff8000081414:	a94ef7fc 	ldp	x28, x29, [sp, #232]
ffffff8000081418:	f9407ffe 	ldr	x30, [sp, #248]
ffffff800008141c:	910483ff 	add	sp, sp, #0x120
ffffff8000081420:	d69f03e0 	eret

ffffff8000081424 <el11h_irq>:
ffffff8000081424:	d10483ff 	sub	sp, sp, #0x120
ffffff8000081428:	a90087e0 	stp	x0, x1, [sp, #8]
ffffff800008142c:	a9018fe2 	stp	x2, x3, [sp, #24]
ffffff8000081430:	a90297e4 	stp	x4, x5, [sp, #40]
ffffff8000081434:	a9039fe6 	stp	x6, x7, [sp, #56]
ffffff8000081438:	a904a7e8 	stp	x8, x9, [sp, #72]
ffffff800008143c:	a905afea 	stp	x10, x11, [sp, #88]
ffffff8000081440:	a906b7ec 	stp	x12, x13, [sp, #104]
ffffff8000081444:	a907bfee 	stp	x14, x15, [sp, #120]
ffffff8000081448:	a908c7f0 	stp	x16, x17, [sp, #136]
ffffff800008144c:	a909cff2 	stp	x18, x19, [sp, #152]
ffffff8000081450:	a90ad7f4 	stp	x20, x21, [sp, #168]
ffffff8000081454:	a90bdff6 	stp	x22, x23, [sp, #184]
ffffff8000081458:	a90ce7f8 	stp	x24, x25, [sp, #200]
ffffff800008145c:	a90deffa 	stp	x26, x27, [sp, #216]
ffffff8000081460:	a90ef7fc 	stp	x28, x29, [sp, #232]
ffffff8000081464:	f9007ffe 	str	x30, [sp, #248]
ffffff8000081468:	d5384020 	mrs	x0, elr_el1
ffffff800008146c:	f90083e0 	str	x0, [sp, #256]
ffffff8000081470:	d5384000 	mrs	x0, spsr_el1
ffffff8000081474:	f90087e0 	str	x0, [sp, #264]
ffffff8000081478:	d5385200 	mrs	x0, esr_el1
ffffff800008147c:	f9008be0 	str	x0, [sp, #272]
ffffff8000081480:	d5386000 	mrs	x0, far_el1
ffffff8000081484:	f9008fe0 	str	x0, [sp, #280]
ffffff8000081488:	52800029 	mov	w9, #0x1                   	// #1
ffffff800008148c:	390003e9 	strb	w9, [sp]
ffffff8000081490:	52800029 	mov	w9, #0x1                   	// #1
ffffff8000081494:	390007e9 	strb	w9, [sp, #1]
ffffff8000081498:	910003e0 	mov	x0, sp
ffffff800008149c:	94000570 	bl	ffffff8000082a5c <handle_exception_el1>
ffffff80000814a0:	f94083e1 	ldr	x1, [sp, #256]
ffffff80000814a4:	d5184021 	msr	elr_el1, x1
ffffff80000814a8:	f94087e1 	ldr	x1, [sp, #264]
ffffff80000814ac:	d5184001 	msr	spsr_el1, x1
ffffff80000814b0:	a94087e0 	ldp	x0, x1, [sp, #8]
ffffff80000814b4:	a9418fe2 	ldp	x2, x3, [sp, #24]
ffffff80000814b8:	a94297e4 	ldp	x4, x5, [sp, #40]
ffffff80000814bc:	a9439fe6 	ldp	x6, x7, [sp, #56]
ffffff80000814c0:	a944a7e8 	ldp	x8, x9, [sp, #72]
ffffff80000814c4:	a945afea 	ldp	x10, x11, [sp, #88]
ffffff80000814c8:	a946b7ec 	ldp	x12, x13, [sp, #104]
ffffff80000814cc:	a947bfee 	ldp	x14, x15, [sp, #120]
ffffff80000814d0:	a948c7f0 	ldp	x16, x17, [sp, #136]
ffffff80000814d4:	a949cff2 	ldp	x18, x19, [sp, #152]
ffffff80000814d8:	a94ad7f4 	ldp	x20, x21, [sp, #168]
ffffff80000814dc:	a94bdff6 	ldp	x22, x23, [sp, #184]
ffffff80000814e0:	a94ce7f8 	ldp	x24, x25, [sp, #200]
ffffff80000814e4:	a94deffa 	ldp	x26, x27, [sp, #216]
ffffff80000814e8:	a94ef7fc 	ldp	x28, x29, [sp, #232]
ffffff80000814ec:	f9407ffe 	ldr	x30, [sp, #248]
ffffff80000814f0:	910483ff 	add	sp, sp, #0x120
ffffff80000814f4:	d69f03e0 	eret

ffffff80000814f8 <el11h_fiq>:
ffffff80000814f8:	d10483ff 	sub	sp, sp, #0x120
ffffff80000814fc:	a90087e0 	stp	x0, x1, [sp, #8]
ffffff8000081500:	a9018fe2 	stp	x2, x3, [sp, #24]
ffffff8000081504:	a90297e4 	stp	x4, x5, [sp, #40]
ffffff8000081508:	a9039fe6 	stp	x6, x7, [sp, #56]
ffffff800008150c:	a904a7e8 	stp	x8, x9, [sp, #72]
ffffff8000081510:	a905afea 	stp	x10, x11, [sp, #88]
ffffff8000081514:	a906b7ec 	stp	x12, x13, [sp, #104]
ffffff8000081518:	a907bfee 	stp	x14, x15, [sp, #120]
ffffff800008151c:	a908c7f0 	stp	x16, x17, [sp, #136]
ffffff8000081520:	a909cff2 	stp	x18, x19, [sp, #152]
ffffff8000081524:	a90ad7f4 	stp	x20, x21, [sp, #168]
ffffff8000081528:	a90bdff6 	stp	x22, x23, [sp, #184]
ffffff800008152c:	a90ce7f8 	stp	x24, x25, [sp, #200]
ffffff8000081530:	a90deffa 	stp	x26, x27, [sp, #216]
ffffff8000081534:	a90ef7fc 	stp	x28, x29, [sp, #232]
ffffff8000081538:	f9007ffe 	str	x30, [sp, #248]
ffffff800008153c:	d5384020 	mrs	x0, elr_el1
ffffff8000081540:	f90083e0 	str	x0, [sp, #256]
ffffff8000081544:	d5384000 	mrs	x0, spsr_el1
ffffff8000081548:	f90087e0 	str	x0, [sp, #264]
ffffff800008154c:	d5385200 	mrs	x0, esr_el1
ffffff8000081550:	f9008be0 	str	x0, [sp, #272]
ffffff8000081554:	d5386000 	mrs	x0, far_el1
ffffff8000081558:	f9008fe0 	str	x0, [sp, #280]
ffffff800008155c:	52800049 	mov	w9, #0x2                   	// #2
ffffff8000081560:	390003e9 	strb	w9, [sp]
ffffff8000081564:	52800029 	mov	w9, #0x1                   	// #1
ffffff8000081568:	390007e9 	strb	w9, [sp, #1]
ffffff800008156c:	910003e0 	mov	x0, sp
ffffff8000081570:	9400053b 	bl	ffffff8000082a5c <handle_exception_el1>
ffffff8000081574:	f94083e1 	ldr	x1, [sp, #256]
ffffff8000081578:	d5184021 	msr	elr_el1, x1
ffffff800008157c:	f94087e1 	ldr	x1, [sp, #264]
ffffff8000081580:	d5184001 	msr	spsr_el1, x1
ffffff8000081584:	a94087e0 	ldp	x0, x1, [sp, #8]
ffffff8000081588:	a9418fe2 	ldp	x2, x3, [sp, #24]
ffffff800008158c:	a94297e4 	ldp	x4, x5, [sp, #40]
ffffff8000081590:	a9439fe6 	ldp	x6, x7, [sp, #56]
ffffff8000081594:	a944a7e8 	ldp	x8, x9, [sp, #72]
ffffff8000081598:	a945afea 	ldp	x10, x11, [sp, #88]
ffffff800008159c:	a946b7ec 	ldp	x12, x13, [sp, #104]
ffffff80000815a0:	a947bfee 	ldp	x14, x15, [sp, #120]
ffffff80000815a4:	a948c7f0 	ldp	x16, x17, [sp, #136]
ffffff80000815a8:	a949cff2 	ldp	x18, x19, [sp, #152]
ffffff80000815ac:	a94ad7f4 	ldp	x20, x21, [sp, #168]
ffffff80000815b0:	a94bdff6 	ldp	x22, x23, [sp, #184]
ffffff80000815b4:	a94ce7f8 	ldp	x24, x25, [sp, #200]
ffffff80000815b8:	a94deffa 	ldp	x26, x27, [sp, #216]
ffffff80000815bc:	a94ef7fc 	ldp	x28, x29, [sp, #232]
ffffff80000815c0:	f9407ffe 	ldr	x30, [sp, #248]
ffffff80000815c4:	910483ff 	add	sp, sp, #0x120
ffffff80000815c8:	d69f03e0 	eret

ffffff80000815cc <el11h_serror>:
ffffff80000815cc:	d10483ff 	sub	sp, sp, #0x120
ffffff80000815d0:	a90087e0 	stp	x0, x1, [sp, #8]
ffffff80000815d4:	a9018fe2 	stp	x2, x3, [sp, #24]
ffffff80000815d8:	a90297e4 	stp	x4, x5, [sp, #40]
ffffff80000815dc:	a9039fe6 	stp	x6, x7, [sp, #56]
ffffff80000815e0:	a904a7e8 	stp	x8, x9, [sp, #72]
ffffff80000815e4:	a905afea 	stp	x10, x11, [sp, #88]
ffffff80000815e8:	a906b7ec 	stp	x12, x13, [sp, #104]
ffffff80000815ec:	a907bfee 	stp	x14, x15, [sp, #120]
ffffff80000815f0:	a908c7f0 	stp	x16, x17, [sp, #136]
ffffff80000815f4:	a909cff2 	stp	x18, x19, [sp, #152]
ffffff80000815f8:	a90ad7f4 	stp	x20, x21, [sp, #168]
ffffff80000815fc:	a90bdff6 	stp	x22, x23, [sp, #184]
ffffff8000081600:	a90ce7f8 	stp	x24, x25, [sp, #200]
ffffff8000081604:	a90deffa 	stp	x26, x27, [sp, #216]
ffffff8000081608:	a90ef7fc 	stp	x28, x29, [sp, #232]
ffffff800008160c:	f9007ffe 	str	x30, [sp, #248]
ffffff8000081610:	d5384020 	mrs	x0, elr_el1
ffffff8000081614:	f90083e0 	str	x0, [sp, #256]
ffffff8000081618:	d5384000 	mrs	x0, spsr_el1
ffffff800008161c:	f90087e0 	str	x0, [sp, #264]
ffffff8000081620:	d5385200 	mrs	x0, esr_el1
ffffff8000081624:	f9008be0 	str	x0, [sp, #272]
ffffff8000081628:	d5386000 	mrs	x0, far_el1
ffffff800008162c:	f9008fe0 	str	x0, [sp, #280]
ffffff8000081630:	52800069 	mov	w9, #0x3                   	// #3
ffffff8000081634:	390003e9 	strb	w9, [sp]
ffffff8000081638:	52800029 	mov	w9, #0x1                   	// #1
ffffff800008163c:	390007e9 	strb	w9, [sp, #1]
ffffff8000081640:	910003e0 	mov	x0, sp
ffffff8000081644:	94000506 	bl	ffffff8000082a5c <handle_exception_el1>
ffffff8000081648:	f94083e1 	ldr	x1, [sp, #256]
ffffff800008164c:	d5184021 	msr	elr_el1, x1
ffffff8000081650:	f94087e1 	ldr	x1, [sp, #264]
ffffff8000081654:	d5184001 	msr	spsr_el1, x1
ffffff8000081658:	a94087e0 	ldp	x0, x1, [sp, #8]
ffffff800008165c:	a9418fe2 	ldp	x2, x3, [sp, #24]
ffffff8000081660:	a94297e4 	ldp	x4, x5, [sp, #40]
ffffff8000081664:	a9439fe6 	ldp	x6, x7, [sp, #56]
ffffff8000081668:	a944a7e8 	ldp	x8, x9, [sp, #72]
ffffff800008166c:	a945afea 	ldp	x10, x11, [sp, #88]
ffffff8000081670:	a946b7ec 	ldp	x12, x13, [sp, #104]
ffffff8000081674:	a947bfee 	ldp	x14, x15, [sp, #120]
ffffff8000081678:	a948c7f0 	ldp	x16, x17, [sp, #136]
ffffff800008167c:	a949cff2 	ldp	x18, x19, [sp, #152]
ffffff8000081680:	a94ad7f4 	ldp	x20, x21, [sp, #168]
ffffff8000081684:	a94bdff6 	ldp	x22, x23, [sp, #184]
ffffff8000081688:	a94ce7f8 	ldp	x24, x25, [sp, #200]
ffffff800008168c:	a94deffa 	ldp	x26, x27, [sp, #216]
ffffff8000081690:	a94ef7fc 	ldp	x28, x29, [sp, #232]
ffffff8000081694:	f9407ffe 	ldr	x30, [sp, #248]
ffffff8000081698:	910483ff 	add	sp, sp, #0x120
ffffff800008169c:	d69f03e0 	eret

ffffff80000816a0 <el1064_sync>:
ffffff80000816a0:	d10483ff 	sub	sp, sp, #0x120
ffffff80000816a4:	a90087e0 	stp	x0, x1, [sp, #8]
ffffff80000816a8:	a9018fe2 	stp	x2, x3, [sp, #24]
ffffff80000816ac:	a90297e4 	stp	x4, x5, [sp, #40]
ffffff80000816b0:	a9039fe6 	stp	x6, x7, [sp, #56]
ffffff80000816b4:	a904a7e8 	stp	x8, x9, [sp, #72]
ffffff80000816b8:	a905afea 	stp	x10, x11, [sp, #88]
ffffff80000816bc:	a906b7ec 	stp	x12, x13, [sp, #104]
ffffff80000816c0:	a907bfee 	stp	x14, x15, [sp, #120]
ffffff80000816c4:	a908c7f0 	stp	x16, x17, [sp, #136]
ffffff80000816c8:	a909cff2 	stp	x18, x19, [sp, #152]
ffffff80000816cc:	a90ad7f4 	stp	x20, x21, [sp, #168]
ffffff80000816d0:	a90bdff6 	stp	x22, x23, [sp, #184]
ffffff80000816d4:	a90ce7f8 	stp	x24, x25, [sp, #200]
ffffff80000816d8:	a90deffa 	stp	x26, x27, [sp, #216]
ffffff80000816dc:	a90ef7fc 	stp	x28, x29, [sp, #232]
ffffff80000816e0:	f9007ffe 	str	x30, [sp, #248]
ffffff80000816e4:	d5384020 	mrs	x0, elr_el1
ffffff80000816e8:	f90083e0 	str	x0, [sp, #256]
ffffff80000816ec:	d5384000 	mrs	x0, spsr_el1
ffffff80000816f0:	f90087e0 	str	x0, [sp, #264]
ffffff80000816f4:	d5385200 	mrs	x0, esr_el1
ffffff80000816f8:	f9008be0 	str	x0, [sp, #272]
ffffff80000816fc:	d5386000 	mrs	x0, far_el1
ffffff8000081700:	f9008fe0 	str	x0, [sp, #280]
ffffff8000081704:	52800009 	mov	w9, #0x0                   	// #0
ffffff8000081708:	390003e9 	strb	w9, [sp]
ffffff800008170c:	52800049 	mov	w9, #0x2                   	// #2
ffffff8000081710:	390007e9 	strb	w9, [sp, #1]
ffffff8000081714:	910003e0 	mov	x0, sp
ffffff8000081718:	940004d1 	bl	ffffff8000082a5c <handle_exception_el1>
ffffff800008171c:	f94083e1 	ldr	x1, [sp, #256]
ffffff8000081720:	d5184021 	msr	elr_el1, x1
ffffff8000081724:	f94087e1 	ldr	x1, [sp, #264]
ffffff8000081728:	d5184001 	msr	spsr_el1, x1
ffffff800008172c:	a94087e0 	ldp	x0, x1, [sp, #8]
ffffff8000081730:	a9418fe2 	ldp	x2, x3, [sp, #24]
ffffff8000081734:	a94297e4 	ldp	x4, x5, [sp, #40]
ffffff8000081738:	a9439fe6 	ldp	x6, x7, [sp, #56]
ffffff800008173c:	a944a7e8 	ldp	x8, x9, [sp, #72]
ffffff8000081740:	a945afea 	ldp	x10, x11, [sp, #88]
ffffff8000081744:	a946b7ec 	ldp	x12, x13, [sp, #104]
ffffff8000081748:	a947bfee 	ldp	x14, x15, [sp, #120]
ffffff800008174c:	a948c7f0 	ldp	x16, x17, [sp, #136]
ffffff8000081750:	a949cff2 	ldp	x18, x19, [sp, #152]
ffffff8000081754:	a94ad7f4 	ldp	x20, x21, [sp, #168]
ffffff8000081758:	a94bdff6 	ldp	x22, x23, [sp, #184]
ffffff800008175c:	a94ce7f8 	ldp	x24, x25, [sp, #200]
ffffff8000081760:	a94deffa 	ldp	x26, x27, [sp, #216]
ffffff8000081764:	a94ef7fc 	ldp	x28, x29, [sp, #232]
ffffff8000081768:	f9407ffe 	ldr	x30, [sp, #248]
ffffff800008176c:	910483ff 	add	sp, sp, #0x120
ffffff8000081770:	d69f03e0 	eret

ffffff8000081774 <el1064_irq>:
ffffff8000081774:	d10483ff 	sub	sp, sp, #0x120
ffffff8000081778:	a90087e0 	stp	x0, x1, [sp, #8]
ffffff800008177c:	a9018fe2 	stp	x2, x3, [sp, #24]
ffffff8000081780:	a90297e4 	stp	x4, x5, [sp, #40]
ffffff8000081784:	a9039fe6 	stp	x6, x7, [sp, #56]
ffffff8000081788:	a904a7e8 	stp	x8, x9, [sp, #72]
ffffff800008178c:	a905afea 	stp	x10, x11, [sp, #88]
ffffff8000081790:	a906b7ec 	stp	x12, x13, [sp, #104]
ffffff8000081794:	a907bfee 	stp	x14, x15, [sp, #120]
ffffff8000081798:	a908c7f0 	stp	x16, x17, [sp, #136]
ffffff800008179c:	a909cff2 	stp	x18, x19, [sp, #152]
ffffff80000817a0:	a90ad7f4 	stp	x20, x21, [sp, #168]
ffffff80000817a4:	a90bdff6 	stp	x22, x23, [sp, #184]
ffffff80000817a8:	a90ce7f8 	stp	x24, x25, [sp, #200]
ffffff80000817ac:	a90deffa 	stp	x26, x27, [sp, #216]
ffffff80000817b0:	a90ef7fc 	stp	x28, x29, [sp, #232]
ffffff80000817b4:	f9007ffe 	str	x30, [sp, #248]
ffffff80000817b8:	d5384020 	mrs	x0, elr_el1
ffffff80000817bc:	f90083e0 	str	x0, [sp, #256]
ffffff80000817c0:	d5384000 	mrs	x0, spsr_el1
ffffff80000817c4:	f90087e0 	str	x0, [sp, #264]
ffffff80000817c8:	d5385200 	mrs	x0, esr_el1
ffffff80000817cc:	f9008be0 	str	x0, [sp, #272]
ffffff80000817d0:	d5386000 	mrs	x0, far_el1
ffffff80000817d4:	f9008fe0 	str	x0, [sp, #280]
ffffff80000817d8:	52800029 	mov	w9, #0x1                   	// #1
ffffff80000817dc:	390003e9 	strb	w9, [sp]
ffffff80000817e0:	52800049 	mov	w9, #0x2                   	// #2
ffffff80000817e4:	390007e9 	strb	w9, [sp, #1]
ffffff80000817e8:	910003e0 	mov	x0, sp
ffffff80000817ec:	9400049c 	bl	ffffff8000082a5c <handle_exception_el1>
ffffff80000817f0:	f94083e1 	ldr	x1, [sp, #256]
ffffff80000817f4:	d5184021 	msr	elr_el1, x1
ffffff80000817f8:	f94087e1 	ldr	x1, [sp, #264]
ffffff80000817fc:	d5184001 	msr	spsr_el1, x1
ffffff8000081800:	a94087e0 	ldp	x0, x1, [sp, #8]
ffffff8000081804:	a9418fe2 	ldp	x2, x3, [sp, #24]
ffffff8000081808:	a94297e4 	ldp	x4, x5, [sp, #40]
ffffff800008180c:	a9439fe6 	ldp	x6, x7, [sp, #56]
ffffff8000081810:	a944a7e8 	ldp	x8, x9, [sp, #72]
ffffff8000081814:	a945afea 	ldp	x10, x11, [sp, #88]
ffffff8000081818:	a946b7ec 	ldp	x12, x13, [sp, #104]
ffffff800008181c:	a947bfee 	ldp	x14, x15, [sp, #120]
ffffff8000081820:	a948c7f0 	ldp	x16, x17, [sp, #136]
ffffff8000081824:	a949cff2 	ldp	x18, x19, [sp, #152]
ffffff8000081828:	a94ad7f4 	ldp	x20, x21, [sp, #168]
ffffff800008182c:	a94bdff6 	ldp	x22, x23, [sp, #184]
ffffff8000081830:	a94ce7f8 	ldp	x24, x25, [sp, #200]
ffffff8000081834:	a94deffa 	ldp	x26, x27, [sp, #216]
ffffff8000081838:	a94ef7fc 	ldp	x28, x29, [sp, #232]
ffffff800008183c:	f9407ffe 	ldr	x30, [sp, #248]
ffffff8000081840:	910483ff 	add	sp, sp, #0x120
ffffff8000081844:	d69f03e0 	eret

ffffff8000081848 <el1064_fiq>:
ffffff8000081848:	d10483ff 	sub	sp, sp, #0x120
ffffff800008184c:	a90087e0 	stp	x0, x1, [sp, #8]
ffffff8000081850:	a9018fe2 	stp	x2, x3, [sp, #24]
ffffff8000081854:	a90297e4 	stp	x4, x5, [sp, #40]
ffffff8000081858:	a9039fe6 	stp	x6, x7, [sp, #56]
ffffff800008185c:	a904a7e8 	stp	x8, x9, [sp, #72]
ffffff8000081860:	a905afea 	stp	x10, x11, [sp, #88]
ffffff8000081864:	a906b7ec 	stp	x12, x13, [sp, #104]
ffffff8000081868:	a907bfee 	stp	x14, x15, [sp, #120]
ffffff800008186c:	a908c7f0 	stp	x16, x17, [sp, #136]
ffffff8000081870:	a909cff2 	stp	x18, x19, [sp, #152]
ffffff8000081874:	a90ad7f4 	stp	x20, x21, [sp, #168]
ffffff8000081878:	a90bdff6 	stp	x22, x23, [sp, #184]
ffffff800008187c:	a90ce7f8 	stp	x24, x25, [sp, #200]
ffffff8000081880:	a90deffa 	stp	x26, x27, [sp, #216]
ffffff8000081884:	a90ef7fc 	stp	x28, x29, [sp, #232]
ffffff8000081888:	f9007ffe 	str	x30, [sp, #248]
ffffff800008188c:	d5384020 	mrs	x0, elr_el1
ffffff8000081890:	f90083e0 	str	x0, [sp, #256]
ffffff8000081894:	d5384000 	mrs	x0, spsr_el1
ffffff8000081898:	f90087e0 	str	x0, [sp, #264]
ffffff800008189c:	d5385200 	mrs	x0, esr_el1
ffffff80000818a0:	f9008be0 	str	x0, [sp, #272]
ffffff80000818a4:	d5386000 	mrs	x0, far_el1
ffffff80000818a8:	f9008fe0 	str	x0, [sp, #280]
ffffff80000818ac:	52800049 	mov	w9, #0x2                   	// #2
ffffff80000818b0:	390003e9 	strb	w9, [sp]
ffffff80000818b4:	52800049 	mov	w9, #0x2                   	// #2
ffffff80000818b8:	390007e9 	strb	w9, [sp, #1]
ffffff80000818bc:	910003e0 	mov	x0, sp
ffffff80000818c0:	94000467 	bl	ffffff8000082a5c <handle_exception_el1>
ffffff80000818c4:	f94083e1 	ldr	x1, [sp, #256]
ffffff80000818c8:	d5184021 	msr	elr_el1, x1
ffffff80000818cc:	f94087e1 	ldr	x1, [sp, #264]
ffffff80000818d0:	d5184001 	msr	spsr_el1, x1
ffffff80000818d4:	a94087e0 	ldp	x0, x1, [sp, #8]
ffffff80000818d8:	a9418fe2 	ldp	x2, x3, [sp, #24]
ffffff80000818dc:	a94297e4 	ldp	x4, x5, [sp, #40]
ffffff80000818e0:	a9439fe6 	ldp	x6, x7, [sp, #56]
ffffff80000818e4:	a944a7e8 	ldp	x8, x9, [sp, #72]
ffffff80000818e8:	a945afea 	ldp	x10, x11, [sp, #88]
ffffff80000818ec:	a946b7ec 	ldp	x12, x13, [sp, #104]
ffffff80000818f0:	a947bfee 	ldp	x14, x15, [sp, #120]
ffffff80000818f4:	a948c7f0 	ldp	x16, x17, [sp, #136]
ffffff80000818f8:	a949cff2 	ldp	x18, x19, [sp, #152]
ffffff80000818fc:	a94ad7f4 	ldp	x20, x21, [sp, #168]
ffffff8000081900:	a94bdff6 	ldp	x22, x23, [sp, #184]
ffffff8000081904:	a94ce7f8 	ldp	x24, x25, [sp, #200]
ffffff8000081908:	a94deffa 	ldp	x26, x27, [sp, #216]
ffffff800008190c:	a94ef7fc 	ldp	x28, x29, [sp, #232]
ffffff8000081910:	f9407ffe 	ldr	x30, [sp, #248]
ffffff8000081914:	910483ff 	add	sp, sp, #0x120
ffffff8000081918:	d69f03e0 	eret

ffffff800008191c <el1064_serror>:
ffffff800008191c:	d10483ff 	sub	sp, sp, #0x120
ffffff8000081920:	a90087e0 	stp	x0, x1, [sp, #8]
ffffff8000081924:	a9018fe2 	stp	x2, x3, [sp, #24]
ffffff8000081928:	a90297e4 	stp	x4, x5, [sp, #40]
ffffff800008192c:	a9039fe6 	stp	x6, x7, [sp, #56]
ffffff8000081930:	a904a7e8 	stp	x8, x9, [sp, #72]
ffffff8000081934:	a905afea 	stp	x10, x11, [sp, #88]
ffffff8000081938:	a906b7ec 	stp	x12, x13, [sp, #104]
ffffff800008193c:	a907bfee 	stp	x14, x15, [sp, #120]
ffffff8000081940:	a908c7f0 	stp	x16, x17, [sp, #136]
ffffff8000081944:	a909cff2 	stp	x18, x19, [sp, #152]
ffffff8000081948:	a90ad7f4 	stp	x20, x21, [sp, #168]
ffffff800008194c:	a90bdff6 	stp	x22, x23, [sp, #184]
ffffff8000081950:	a90ce7f8 	stp	x24, x25, [sp, #200]
ffffff8000081954:	a90deffa 	stp	x26, x27, [sp, #216]
ffffff8000081958:	a90ef7fc 	stp	x28, x29, [sp, #232]
ffffff800008195c:	f9007ffe 	str	x30, [sp, #248]
ffffff8000081960:	d5384020 	mrs	x0, elr_el1
ffffff8000081964:	f90083e0 	str	x0, [sp, #256]
ffffff8000081968:	d5384000 	mrs	x0, spsr_el1
ffffff800008196c:	f90087e0 	str	x0, [sp, #264]
ffffff8000081970:	d5385200 	mrs	x0, esr_el1
ffffff8000081974:	f9008be0 	str	x0, [sp, #272]
ffffff8000081978:	d5386000 	mrs	x0, far_el1
ffffff800008197c:	f9008fe0 	str	x0, [sp, #280]
ffffff8000081980:	52800069 	mov	w9, #0x3                   	// #3
ffffff8000081984:	390003e9 	strb	w9, [sp]
ffffff8000081988:	52800049 	mov	w9, #0x2                   	// #2
ffffff800008198c:	390007e9 	strb	w9, [sp, #1]
ffffff8000081990:	910003e0 	mov	x0, sp
ffffff8000081994:	94000432 	bl	ffffff8000082a5c <handle_exception_el1>
ffffff8000081998:	f94083e1 	ldr	x1, [sp, #256]
ffffff800008199c:	d5184021 	msr	elr_el1, x1
ffffff80000819a0:	f94087e1 	ldr	x1, [sp, #264]
ffffff80000819a4:	d5184001 	msr	spsr_el1, x1
ffffff80000819a8:	a94087e0 	ldp	x0, x1, [sp, #8]
ffffff80000819ac:	a9418fe2 	ldp	x2, x3, [sp, #24]
ffffff80000819b0:	a94297e4 	ldp	x4, x5, [sp, #40]
ffffff80000819b4:	a9439fe6 	ldp	x6, x7, [sp, #56]
ffffff80000819b8:	a944a7e8 	ldp	x8, x9, [sp, #72]
ffffff80000819bc:	a945afea 	ldp	x10, x11, [sp, #88]
ffffff80000819c0:	a946b7ec 	ldp	x12, x13, [sp, #104]
ffffff80000819c4:	a947bfee 	ldp	x14, x15, [sp, #120]
ffffff80000819c8:	a948c7f0 	ldp	x16, x17, [sp, #136]
ffffff80000819cc:	a949cff2 	ldp	x18, x19, [sp, #152]
ffffff80000819d0:	a94ad7f4 	ldp	x20, x21, [sp, #168]
ffffff80000819d4:	a94bdff6 	ldp	x22, x23, [sp, #184]
ffffff80000819d8:	a94ce7f8 	ldp	x24, x25, [sp, #200]
ffffff80000819dc:	a94deffa 	ldp	x26, x27, [sp, #216]
ffffff80000819e0:	a94ef7fc 	ldp	x28, x29, [sp, #232]
ffffff80000819e4:	f9407ffe 	ldr	x30, [sp, #248]
ffffff80000819e8:	910483ff 	add	sp, sp, #0x120
ffffff80000819ec:	d69f03e0 	eret

ffffff80000819f0 <el1032_sync>:
ffffff80000819f0:	d10483ff 	sub	sp, sp, #0x120
ffffff80000819f4:	a90087e0 	stp	x0, x1, [sp, #8]
ffffff80000819f8:	a9018fe2 	stp	x2, x3, [sp, #24]
ffffff80000819fc:	a90297e4 	stp	x4, x5, [sp, #40]
ffffff8000081a00:	a9039fe6 	stp	x6, x7, [sp, #56]
ffffff8000081a04:	a904a7e8 	stp	x8, x9, [sp, #72]
ffffff8000081a08:	a905afea 	stp	x10, x11, [sp, #88]
ffffff8000081a0c:	a906b7ec 	stp	x12, x13, [sp, #104]
ffffff8000081a10:	a907bfee 	stp	x14, x15, [sp, #120]
ffffff8000081a14:	a908c7f0 	stp	x16, x17, [sp, #136]
ffffff8000081a18:	a909cff2 	stp	x18, x19, [sp, #152]
ffffff8000081a1c:	a90ad7f4 	stp	x20, x21, [sp, #168]
ffffff8000081a20:	a90bdff6 	stp	x22, x23, [sp, #184]
ffffff8000081a24:	a90ce7f8 	stp	x24, x25, [sp, #200]
ffffff8000081a28:	a90deffa 	stp	x26, x27, [sp, #216]
ffffff8000081a2c:	a90ef7fc 	stp	x28, x29, [sp, #232]
ffffff8000081a30:	f9007ffe 	str	x30, [sp, #248]
ffffff8000081a34:	d5384020 	mrs	x0, elr_el1
ffffff8000081a38:	f90083e0 	str	x0, [sp, #256]
ffffff8000081a3c:	d5384000 	mrs	x0, spsr_el1
ffffff8000081a40:	f90087e0 	str	x0, [sp, #264]
ffffff8000081a44:	d5385200 	mrs	x0, esr_el1
ffffff8000081a48:	f9008be0 	str	x0, [sp, #272]
ffffff8000081a4c:	d5386000 	mrs	x0, far_el1
ffffff8000081a50:	f9008fe0 	str	x0, [sp, #280]
ffffff8000081a54:	52800009 	mov	w9, #0x0                   	// #0
ffffff8000081a58:	390003e9 	strb	w9, [sp]
ffffff8000081a5c:	52800069 	mov	w9, #0x3                   	// #3
ffffff8000081a60:	390007e9 	strb	w9, [sp, #1]
ffffff8000081a64:	910003e0 	mov	x0, sp
ffffff8000081a68:	940003fd 	bl	ffffff8000082a5c <handle_exception_el1>
ffffff8000081a6c:	f94083e1 	ldr	x1, [sp, #256]
ffffff8000081a70:	d5184021 	msr	elr_el1, x1
ffffff8000081a74:	f94087e1 	ldr	x1, [sp, #264]
ffffff8000081a78:	d5184001 	msr	spsr_el1, x1
ffffff8000081a7c:	a94087e0 	ldp	x0, x1, [sp, #8]
ffffff8000081a80:	a9418fe2 	ldp	x2, x3, [sp, #24]
ffffff8000081a84:	a94297e4 	ldp	x4, x5, [sp, #40]
ffffff8000081a88:	a9439fe6 	ldp	x6, x7, [sp, #56]
ffffff8000081a8c:	a944a7e8 	ldp	x8, x9, [sp, #72]
ffffff8000081a90:	a945afea 	ldp	x10, x11, [sp, #88]
ffffff8000081a94:	a946b7ec 	ldp	x12, x13, [sp, #104]
ffffff8000081a98:	a947bfee 	ldp	x14, x15, [sp, #120]
ffffff8000081a9c:	a948c7f0 	ldp	x16, x17, [sp, #136]
ffffff8000081aa0:	a949cff2 	ldp	x18, x19, [sp, #152]
ffffff8000081aa4:	a94ad7f4 	ldp	x20, x21, [sp, #168]
ffffff8000081aa8:	a94bdff6 	ldp	x22, x23, [sp, #184]
ffffff8000081aac:	a94ce7f8 	ldp	x24, x25, [sp, #200]
ffffff8000081ab0:	a94deffa 	ldp	x26, x27, [sp, #216]
ffffff8000081ab4:	a94ef7fc 	ldp	x28, x29, [sp, #232]
ffffff8000081ab8:	f9407ffe 	ldr	x30, [sp, #248]
ffffff8000081abc:	910483ff 	add	sp, sp, #0x120
ffffff8000081ac0:	d69f03e0 	eret

ffffff8000081ac4 <el1032_irq>:
ffffff8000081ac4:	d10483ff 	sub	sp, sp, #0x120
ffffff8000081ac8:	a90087e0 	stp	x0, x1, [sp, #8]
ffffff8000081acc:	a9018fe2 	stp	x2, x3, [sp, #24]
ffffff8000081ad0:	a90297e4 	stp	x4, x5, [sp, #40]
ffffff8000081ad4:	a9039fe6 	stp	x6, x7, [sp, #56]
ffffff8000081ad8:	a904a7e8 	stp	x8, x9, [sp, #72]
ffffff8000081adc:	a905afea 	stp	x10, x11, [sp, #88]
ffffff8000081ae0:	a906b7ec 	stp	x12, x13, [sp, #104]
ffffff8000081ae4:	a907bfee 	stp	x14, x15, [sp, #120]
ffffff8000081ae8:	a908c7f0 	stp	x16, x17, [sp, #136]
ffffff8000081aec:	a909cff2 	stp	x18, x19, [sp, #152]
ffffff8000081af0:	a90ad7f4 	stp	x20, x21, [sp, #168]
ffffff8000081af4:	a90bdff6 	stp	x22, x23, [sp, #184]
ffffff8000081af8:	a90ce7f8 	stp	x24, x25, [sp, #200]
ffffff8000081afc:	a90deffa 	stp	x26, x27, [sp, #216]
ffffff8000081b00:	a90ef7fc 	stp	x28, x29, [sp, #232]
ffffff8000081b04:	f9007ffe 	str	x30, [sp, #248]
ffffff8000081b08:	d5384020 	mrs	x0, elr_el1
ffffff8000081b0c:	f90083e0 	str	x0, [sp, #256]
ffffff8000081b10:	d5384000 	mrs	x0, spsr_el1
ffffff8000081b14:	f90087e0 	str	x0, [sp, #264]
ffffff8000081b18:	d5385200 	mrs	x0, esr_el1
ffffff8000081b1c:	f9008be0 	str	x0, [sp, #272]
ffffff8000081b20:	d5386000 	mrs	x0, far_el1
ffffff8000081b24:	f9008fe0 	str	x0, [sp, #280]
ffffff8000081b28:	52800029 	mov	w9, #0x1                   	// #1
ffffff8000081b2c:	390003e9 	strb	w9, [sp]
ffffff8000081b30:	52800069 	mov	w9, #0x3                   	// #3
ffffff8000081b34:	390007e9 	strb	w9, [sp, #1]
ffffff8000081b38:	910003e0 	mov	x0, sp
ffffff8000081b3c:	940003c8 	bl	ffffff8000082a5c <handle_exception_el1>
ffffff8000081b40:	f94083e1 	ldr	x1, [sp, #256]
ffffff8000081b44:	d5184021 	msr	elr_el1, x1
ffffff8000081b48:	f94087e1 	ldr	x1, [sp, #264]
ffffff8000081b4c:	d5184001 	msr	spsr_el1, x1
ffffff8000081b50:	a94087e0 	ldp	x0, x1, [sp, #8]
ffffff8000081b54:	a9418fe2 	ldp	x2, x3, [sp, #24]
ffffff8000081b58:	a94297e4 	ldp	x4, x5, [sp, #40]
ffffff8000081b5c:	a9439fe6 	ldp	x6, x7, [sp, #56]
ffffff8000081b60:	a944a7e8 	ldp	x8, x9, [sp, #72]
ffffff8000081b64:	a945afea 	ldp	x10, x11, [sp, #88]
ffffff8000081b68:	a946b7ec 	ldp	x12, x13, [sp, #104]
ffffff8000081b6c:	a947bfee 	ldp	x14, x15, [sp, #120]
ffffff8000081b70:	a948c7f0 	ldp	x16, x17, [sp, #136]
ffffff8000081b74:	a949cff2 	ldp	x18, x19, [sp, #152]
ffffff8000081b78:	a94ad7f4 	ldp	x20, x21, [sp, #168]
ffffff8000081b7c:	a94bdff6 	ldp	x22, x23, [sp, #184]
ffffff8000081b80:	a94ce7f8 	ldp	x24, x25, [sp, #200]
ffffff8000081b84:	a94deffa 	ldp	x26, x27, [sp, #216]
ffffff8000081b88:	a94ef7fc 	ldp	x28, x29, [sp, #232]
ffffff8000081b8c:	f9407ffe 	ldr	x30, [sp, #248]
ffffff8000081b90:	910483ff 	add	sp, sp, #0x120
ffffff8000081b94:	d69f03e0 	eret

ffffff8000081b98 <el1032_fiq>:
ffffff8000081b98:	d10483ff 	sub	sp, sp, #0x120
ffffff8000081b9c:	a90087e0 	stp	x0, x1, [sp, #8]
ffffff8000081ba0:	a9018fe2 	stp	x2, x3, [sp, #24]
ffffff8000081ba4:	a90297e4 	stp	x4, x5, [sp, #40]
ffffff8000081ba8:	a9039fe6 	stp	x6, x7, [sp, #56]
ffffff8000081bac:	a904a7e8 	stp	x8, x9, [sp, #72]
ffffff8000081bb0:	a905afea 	stp	x10, x11, [sp, #88]
ffffff8000081bb4:	a906b7ec 	stp	x12, x13, [sp, #104]
ffffff8000081bb8:	a907bfee 	stp	x14, x15, [sp, #120]
ffffff8000081bbc:	a908c7f0 	stp	x16, x17, [sp, #136]
ffffff8000081bc0:	a909cff2 	stp	x18, x19, [sp, #152]
ffffff8000081bc4:	a90ad7f4 	stp	x20, x21, [sp, #168]
ffffff8000081bc8:	a90bdff6 	stp	x22, x23, [sp, #184]
ffffff8000081bcc:	a90ce7f8 	stp	x24, x25, [sp, #200]
ffffff8000081bd0:	a90deffa 	stp	x26, x27, [sp, #216]
ffffff8000081bd4:	a90ef7fc 	stp	x28, x29, [sp, #232]
ffffff8000081bd8:	f9007ffe 	str	x30, [sp, #248]
ffffff8000081bdc:	d5384020 	mrs	x0, elr_el1
ffffff8000081be0:	f90083e0 	str	x0, [sp, #256]
ffffff8000081be4:	d5384000 	mrs	x0, spsr_el1
ffffff8000081be8:	f90087e0 	str	x0, [sp, #264]
ffffff8000081bec:	d5385200 	mrs	x0, esr_el1
ffffff8000081bf0:	f9008be0 	str	x0, [sp, #272]
ffffff8000081bf4:	d5386000 	mrs	x0, far_el1
ffffff8000081bf8:	f9008fe0 	str	x0, [sp, #280]
ffffff8000081bfc:	52800049 	mov	w9, #0x2                   	// #2
ffffff8000081c00:	390003e9 	strb	w9, [sp]
ffffff8000081c04:	52800069 	mov	w9, #0x3                   	// #3
ffffff8000081c08:	390007e9 	strb	w9, [sp, #1]
ffffff8000081c0c:	910003e0 	mov	x0, sp
ffffff8000081c10:	94000393 	bl	ffffff8000082a5c <handle_exception_el1>
ffffff8000081c14:	f94083e1 	ldr	x1, [sp, #256]
ffffff8000081c18:	d5184021 	msr	elr_el1, x1
ffffff8000081c1c:	f94087e1 	ldr	x1, [sp, #264]
ffffff8000081c20:	d5184001 	msr	spsr_el1, x1
ffffff8000081c24:	a94087e0 	ldp	x0, x1, [sp, #8]
ffffff8000081c28:	a9418fe2 	ldp	x2, x3, [sp, #24]
ffffff8000081c2c:	a94297e4 	ldp	x4, x5, [sp, #40]
ffffff8000081c30:	a9439fe6 	ldp	x6, x7, [sp, #56]
ffffff8000081c34:	a944a7e8 	ldp	x8, x9, [sp, #72]
ffffff8000081c38:	a945afea 	ldp	x10, x11, [sp, #88]
ffffff8000081c3c:	a946b7ec 	ldp	x12, x13, [sp, #104]
ffffff8000081c40:	a947bfee 	ldp	x14, x15, [sp, #120]
ffffff8000081c44:	a948c7f0 	ldp	x16, x17, [sp, #136]
ffffff8000081c48:	a949cff2 	ldp	x18, x19, [sp, #152]
ffffff8000081c4c:	a94ad7f4 	ldp	x20, x21, [sp, #168]
ffffff8000081c50:	a94bdff6 	ldp	x22, x23, [sp, #184]
ffffff8000081c54:	a94ce7f8 	ldp	x24, x25, [sp, #200]
ffffff8000081c58:	a94deffa 	ldp	x26, x27, [sp, #216]
ffffff8000081c5c:	a94ef7fc 	ldp	x28, x29, [sp, #232]
ffffff8000081c60:	f9407ffe 	ldr	x30, [sp, #248]
ffffff8000081c64:	910483ff 	add	sp, sp, #0x120
ffffff8000081c68:	d69f03e0 	eret

ffffff8000081c6c <el1032_serror>:
ffffff8000081c6c:	d10483ff 	sub	sp, sp, #0x120
ffffff8000081c70:	a90087e0 	stp	x0, x1, [sp, #8]
ffffff8000081c74:	a9018fe2 	stp	x2, x3, [sp, #24]
ffffff8000081c78:	a90297e4 	stp	x4, x5, [sp, #40]
ffffff8000081c7c:	a9039fe6 	stp	x6, x7, [sp, #56]
ffffff8000081c80:	a904a7e8 	stp	x8, x9, [sp, #72]
ffffff8000081c84:	a905afea 	stp	x10, x11, [sp, #88]
ffffff8000081c88:	a906b7ec 	stp	x12, x13, [sp, #104]
ffffff8000081c8c:	a907bfee 	stp	x14, x15, [sp, #120]
ffffff8000081c90:	a908c7f0 	stp	x16, x17, [sp, #136]
ffffff8000081c94:	a909cff2 	stp	x18, x19, [sp, #152]
ffffff8000081c98:	a90ad7f4 	stp	x20, x21, [sp, #168]
ffffff8000081c9c:	a90bdff6 	stp	x22, x23, [sp, #184]
ffffff8000081ca0:	a90ce7f8 	stp	x24, x25, [sp, #200]
ffffff8000081ca4:	a90deffa 	stp	x26, x27, [sp, #216]
ffffff8000081ca8:	a90ef7fc 	stp	x28, x29, [sp, #232]
ffffff8000081cac:	f9007ffe 	str	x30, [sp, #248]
ffffff8000081cb0:	d5384020 	mrs	x0, elr_el1
ffffff8000081cb4:	f90083e0 	str	x0, [sp, #256]
ffffff8000081cb8:	d5384000 	mrs	x0, spsr_el1
ffffff8000081cbc:	f90087e0 	str	x0, [sp, #264]
ffffff8000081cc0:	d5385200 	mrs	x0, esr_el1
ffffff8000081cc4:	f9008be0 	str	x0, [sp, #272]
ffffff8000081cc8:	d5386000 	mrs	x0, far_el1
ffffff8000081ccc:	f9008fe0 	str	x0, [sp, #280]
ffffff8000081cd0:	52800069 	mov	w9, #0x3                   	// #3
ffffff8000081cd4:	390003e9 	strb	w9, [sp]
ffffff8000081cd8:	52800069 	mov	w9, #0x3                   	// #3
ffffff8000081cdc:	390007e9 	strb	w9, [sp, #1]
ffffff8000081ce0:	910003e0 	mov	x0, sp
ffffff8000081ce4:	9400035e 	bl	ffffff8000082a5c <handle_exception_el1>
ffffff8000081ce8:	f94083e1 	ldr	x1, [sp, #256]
ffffff8000081cec:	d5184021 	msr	elr_el1, x1
ffffff8000081cf0:	f94087e1 	ldr	x1, [sp, #264]
ffffff8000081cf4:	d5184001 	msr	spsr_el1, x1
ffffff8000081cf8:	a94087e0 	ldp	x0, x1, [sp, #8]
ffffff8000081cfc:	a9418fe2 	ldp	x2, x3, [sp, #24]
ffffff8000081d00:	a94297e4 	ldp	x4, x5, [sp, #40]
ffffff8000081d04:	a9439fe6 	ldp	x6, x7, [sp, #56]
ffffff8000081d08:	a944a7e8 	ldp	x8, x9, [sp, #72]
ffffff8000081d0c:	a945afea 	ldp	x10, x11, [sp, #88]
ffffff8000081d10:	a946b7ec 	ldp	x12, x13, [sp, #104]
ffffff8000081d14:	a947bfee 	ldp	x14, x15, [sp, #120]
ffffff8000081d18:	a948c7f0 	ldp	x16, x17, [sp, #136]
ffffff8000081d1c:	a949cff2 	ldp	x18, x19, [sp, #152]
ffffff8000081d20:	a94ad7f4 	ldp	x20, x21, [sp, #168]
ffffff8000081d24:	a94bdff6 	ldp	x22, x23, [sp, #184]
ffffff8000081d28:	a94ce7f8 	ldp	x24, x25, [sp, #200]
ffffff8000081d2c:	a94deffa 	ldp	x26, x27, [sp, #216]
ffffff8000081d30:	a94ef7fc 	ldp	x28, x29, [sp, #232]
ffffff8000081d34:	f9407ffe 	ldr	x30, [sp, #248]
ffffff8000081d38:	910483ff 	add	sp, sp, #0x120
ffffff8000081d3c:	d69f03e0 	eret

ffffff8000081d40 <_RNvCs1Y7DaGC1cwg_7___rustc17rust_begin_unwind>:
ffffff8000081d40:	d100c3ff 	sub	sp, sp, #0x30
ffffff8000081d44:	910023e8 	add	x8, sp, #0x8
ffffff8000081d48:	90000009 	adrp	x9, ffffff8000081000 <el11t_sync>
ffffff8000081d4c:	9137f129 	add	x9, x9, #0xdfc
ffffff8000081d50:	a900a3e0 	stp	x0, x8, [sp, #8]
ffffff8000081d54:	b0000021 	adrp	x1, ffffff8000086000 <TCR_EL1_VALUE+0x968>
ffffff8000081d58:	913ee021 	add	x1, x1, #0xfb8
ffffff8000081d5c:	b0000022 	adrp	x2, ffffff8000086000 <TCR_EL1_VALUE+0x968>
ffffff8000081d60:	91000042 	add	x2, x2, #0x0
ffffff8000081d64:	9100bfe0 	add	x0, sp, #0x2f
ffffff8000081d68:	910043e3 	add	x3, sp, #0x10
ffffff8000081d6c:	a901fbe9 	stp	x9, x30, [sp, #24]
ffffff8000081d70:	940007fe 	bl	ffffff8000083d68 <_ZN4core3fmt5write17h4e09d17c17eebf64E>
ffffff8000081d74:	37000280 	tbnz	w0, #0, ffffff8000081dc4 <_RNvCs1Y7DaGC1cwg_7___rustc17rust_begin_unwind+0x84>
ffffff8000081d78:	9295f568 	mov	x8, #0xffffffffffff5054    	// #-44972
ffffff8000081d7c:	f2a7e428 	movk	x8, #0x3f21, lsl #16
ffffff8000081d80:	f2dff008 	movk	x8, #0xff80, lsl #32
ffffff8000081d84:	b9400109 	ldr	w9, [x8]
ffffff8000081d88:	37280089 	tbnz	w9, #5, ffffff8000081d98 <_RNvCs1Y7DaGC1cwg_7___rustc17rust_begin_unwind+0x58>
ffffff8000081d8c:	d503201f 	nop
ffffff8000081d90:	b9400109 	ldr	w9, [x8]
ffffff8000081d94:	362fffc9 	tbz	w9, #5, ffffff8000081d8c <_RNvCs1Y7DaGC1cwg_7___rustc17rust_begin_unwind+0x4c>
ffffff8000081d98:	528001a9 	mov	w9, #0xd                   	// #13
ffffff8000081d9c:	b81ec109 	stur	w9, [x8, #-20]
ffffff8000081da0:	b9400109 	ldr	w9, [x8]
ffffff8000081da4:	37280089 	tbnz	w9, #5, ffffff8000081db4 <_RNvCs1Y7DaGC1cwg_7___rustc17rust_begin_unwind+0x74>
ffffff8000081da8:	d503201f 	nop
ffffff8000081dac:	b9400109 	ldr	w9, [x8]
ffffff8000081db0:	362fffc9 	tbz	w9, #5, ffffff8000081da8 <_RNvCs1Y7DaGC1cwg_7___rustc17rust_begin_unwind+0x68>
ffffff8000081db4:	52800149 	mov	w9, #0xa                   	// #10
ffffff8000081db8:	b81ec109 	stur	w9, [x8, #-20]
ffffff8000081dbc:	d5033fdf 	isb
ffffff8000081dc0:	17ffffff 	b	ffffff8000081dbc <_RNvCs1Y7DaGC1cwg_7___rustc17rust_begin_unwind+0x7c>
ffffff8000081dc4:	b0000020 	adrp	x0, ffffff8000086000 <TCR_EL1_VALUE+0x968>
ffffff8000081dc8:	91362000 	add	x0, x0, #0xd88
ffffff8000081dcc:	b0000023 	adrp	x3, ffffff8000086000 <TCR_EL1_VALUE+0x968>
ffffff8000081dd0:	9135a063 	add	x3, x3, #0xd68
ffffff8000081dd4:	b0000024 	adrp	x4, ffffff8000086000 <TCR_EL1_VALUE+0x968>
ffffff8000081dd8:	9136e084 	add	x4, x4, #0xdb8
ffffff8000081ddc:	9100bfe2 	add	x2, sp, #0x2f
ffffff8000081de0:	52800561 	mov	w1, #0x2b                  	// #43
ffffff8000081de4:	94000d35 	bl	ffffff80000852b8 <_ZN4core6result13unwrap_failed17h89589bbb6ce8ba23E>

ffffff8000081de8 <_ZN44_$LT$$RF$T$u20$as$u20$core..fmt..Display$GT$3fmt17h2f275ccc08851e97E>:
ffffff8000081de8:	a9402408 	ldp	x8, x9, [x0]
ffffff8000081dec:	aa0103e2 	mov	x2, x1
ffffff8000081df0:	aa0803e0 	mov	x0, x8
ffffff8000081df4:	aa0903e1 	mov	x1, x9
ffffff8000081df8:	140005fd 	b	ffffff80000835ec <_ZN42_$LT$str$u20$as$u20$core..fmt..Display$GT$3fmt17hb69d67a4c6f3d4d1E>

ffffff8000081dfc <_ZN44_$LT$$RF$T$u20$as$u20$core..fmt..Display$GT$3fmt17hc69440d3ef9eccf5E>:
ffffff8000081dfc:	f9400000 	ldr	x0, [x0]
ffffff8000081e00:	14000d59 	b	ffffff8000085364 <_ZN73_$LT$core..panic..panic_info..PanicInfo$u20$as$u20$core..fmt..Display$GT$3fmt17h6ee159a4b0e4170eE>

ffffff8000081e04 <_ZN4core3fmt5Write10write_char17hd9161e48657d693fE>:
ffffff8000081e04:	d10043ff 	sub	sp, sp, #0x10
ffffff8000081e08:	7102003f 	cmp	w1, #0x80
ffffff8000081e0c:	910033e8 	add	x8, sp, #0xc
ffffff8000081e10:	b9000fff 	str	wzr, [sp, #12]
ffffff8000081e14:	54000082 	b.cs	ffffff8000081e24 <_ZN4core3fmt5Write10write_char17hd9161e48657d693fE+0x20>  // b.hs, b.nlast
ffffff8000081e18:	b2400108 	orr	x8, x8, #0x1
ffffff8000081e1c:	390033e1 	strb	w1, [sp, #12]
ffffff8000081e20:	1400001d 	b	ffffff8000081e94 <_ZN4core3fmt5Write10write_char17hd9161e48657d693fE+0x90>
ffffff8000081e24:	12800fe9 	mov	w9, #0xffffff80            	// #-128
ffffff8000081e28:	7120003f 	cmp	w1, #0x800
ffffff8000081e2c:	12800feb 	mov	w11, #0xffffff80            	// #-128
ffffff8000081e30:	33001429 	bfxil	w9, w1, #0, #6
ffffff8000081e34:	540000c2 	b.cs	ffffff8000081e4c <_ZN4core3fmt5Write10write_char17hd9161e48657d693fE+0x48>  // b.hs, b.nlast
ffffff8000081e38:	53067c2a 	lsr	w10, w1, #6
ffffff8000081e3c:	b27f0108 	orr	x8, x8, #0x2
ffffff8000081e40:	390037e9 	strb	w9, [sp, #13]
ffffff8000081e44:	321a054a 	orr	w10, w10, #0xc0
ffffff8000081e48:	14000012 	b	ffffff8000081e90 <_ZN4core3fmt5Write10write_char17hd9161e48657d693fE+0x8c>
ffffff8000081e4c:	12800fea 	mov	w10, #0xffffff80            	// #-128
ffffff8000081e50:	53107c2c 	lsr	w12, w1, #16
ffffff8000081e54:	33062c2a 	bfxil	w10, w1, #6, #6
ffffff8000081e58:	350000ec 	cbnz	w12, ffffff8000081e74 <_ZN4core3fmt5Write10write_char17hd9161e48657d693fE+0x70>
ffffff8000081e5c:	530c7c2b 	lsr	w11, w1, #12
ffffff8000081e60:	390037ea 	strb	w10, [sp, #13]
ffffff8000081e64:	b2400508 	orr	x8, x8, #0x3
ffffff8000081e68:	39003be9 	strb	w9, [sp, #14]
ffffff8000081e6c:	321b096a 	orr	w10, w11, #0xe0
ffffff8000081e70:	14000008 	b	ffffff8000081e90 <_ZN4core3fmt5Write10write_char17hd9161e48657d693fE+0x8c>
ffffff8000081e74:	53127c2c 	lsr	w12, w1, #18
ffffff8000081e78:	330c442b 	bfxil	w11, w1, #12, #6
ffffff8000081e7c:	39003bea 	strb	w10, [sp, #14]
ffffff8000081e80:	91001108 	add	x8, x8, #0x4
ffffff8000081e84:	39003fe9 	strb	w9, [sp, #15]
ffffff8000081e88:	321c6d8a 	orr	w10, w12, #0xfffffff0
ffffff8000081e8c:	390037eb 	strb	w11, [sp, #13]
ffffff8000081e90:	390033ea 	strb	w10, [sp, #12]
ffffff8000081e94:	9295f569 	mov	x9, #0xffffffffffff5054    	// #-44972
ffffff8000081e98:	910033ea 	add	x10, sp, #0xc
ffffff8000081e9c:	528001ab 	mov	w11, #0xd                   	// #13
ffffff8000081ea0:	f2a7e429 	movk	x9, #0x3f21, lsl #16
ffffff8000081ea4:	f2dff009 	movk	x9, #0xff80, lsl #32
ffffff8000081ea8:	3840154c 	ldrb	w12, [x10], #1
ffffff8000081eac:	7100299f 	cmp	w12, #0xa
ffffff8000081eb0:	54000121 	b.ne	ffffff8000081ed4 <_ZN4core3fmt5Write10write_char17hd9161e48657d693fE+0xd0>  // b.any
ffffff8000081eb4:	b940012d 	ldr	w13, [x9]
ffffff8000081eb8:	3728008d 	tbnz	w13, #5, ffffff8000081ec8 <_ZN4core3fmt5Write10write_char17hd9161e48657d693fE+0xc4>
ffffff8000081ebc:	d503201f 	nop
ffffff8000081ec0:	b940012d 	ldr	w13, [x9]
ffffff8000081ec4:	362fffcd 	tbz	w13, #5, ffffff8000081ebc <_ZN4core3fmt5Write10write_char17hd9161e48657d693fE+0xb8>
ffffff8000081ec8:	b81ec12b 	stur	w11, [x9, #-20]
ffffff8000081ecc:	14000002 	b	ffffff8000081ed4 <_ZN4core3fmt5Write10write_char17hd9161e48657d693fE+0xd0>
ffffff8000081ed0:	d503201f 	nop
ffffff8000081ed4:	b940012d 	ldr	w13, [x9]
ffffff8000081ed8:	362fffcd 	tbz	w13, #5, ffffff8000081ed0 <_ZN4core3fmt5Write10write_char17hd9161e48657d693fE+0xcc>
ffffff8000081edc:	eb08015f 	cmp	x10, x8
ffffff8000081ee0:	b81ec12c 	stur	w12, [x9, #-20]
ffffff8000081ee4:	54fffe21 	b.ne	ffffff8000081ea8 <_ZN4core3fmt5Write10write_char17hd9161e48657d693fE+0xa4>  // b.any
ffffff8000081ee8:	2a1f03e0 	mov	w0, wzr
ffffff8000081eec:	910043ff 	add	sp, sp, #0x10
ffffff8000081ef0:	d65f03c0 	ret

ffffff8000081ef4 <_ZN4core3fmt5Write9write_fmt17h7de44888731a2946E>:
ffffff8000081ef4:	aa0203e3 	mov	x3, x2
ffffff8000081ef8:	aa0103e2 	mov	x2, x1
ffffff8000081efc:	b0000021 	adrp	x1, ffffff8000086000 <TCR_EL1_VALUE+0x968>
ffffff8000081f00:	913ee021 	add	x1, x1, #0xfb8
ffffff8000081f04:	14000799 	b	ffffff8000083d68 <_ZN4core3fmt5write17h4e09d17c17eebf64E>

ffffff8000081f08 <_ZN53_$LT$core..fmt..Error$u20$as$u20$core..fmt..Debug$GT$3fmt17hcaa73dcf0521ba46E>:
ffffff8000081f08:	aa0103e0 	mov	x0, x1
ffffff8000081f0c:	b0000021 	adrp	x1, ffffff8000086000 <TCR_EL1_VALUE+0x968>
ffffff8000081f10:	91374021 	add	x1, x1, #0xdd0
ffffff8000081f14:	528000a2 	mov	w2, #0x5                   	// #5
ffffff8000081f18:	14000a55 	b	ffffff800008486c <_ZN4core3fmt9Formatter9write_str17h84f67679a465af20E>

ffffff8000081f1c <_ZN5at_os6kernel10exceptions23print_exception_context17h67ed1ce79c9c1ffbE>:
ffffff8000081f1c:	d102c3ff 	sub	sp, sp, #0xb0
ffffff8000081f20:	f9002bfe 	str	x30, [sp, #80]
ffffff8000081f24:	a9066ffc 	stp	x28, x27, [sp, #96]
ffffff8000081f28:	a90767fa 	stp	x26, x25, [sp, #112]
ffffff8000081f2c:	a9085ff8 	stp	x24, x23, [sp, #128]
ffffff8000081f30:	a90957f6 	stp	x22, x21, [sp, #144]
ffffff8000081f34:	a90a4ff4 	stp	x20, x19, [sp, #160]
ffffff8000081f38:	39400008 	ldrb	w8, [x0]
ffffff8000081f3c:	d000002a 	adrp	x10, ffffff8000087000 <TCR_EL1_VALUE+0x1968>
ffffff8000081f40:	9109c14a 	add	x10, x10, #0x270
ffffff8000081f44:	d000002b 	adrp	x11, ffffff8000087000 <TCR_EL1_VALUE+0x1968>
ffffff8000081f48:	910a416b 	add	x11, x11, #0x290
ffffff8000081f4c:	39400414 	ldrb	w20, [x0, #1]
ffffff8000081f50:	f868794a 	ldr	x10, [x10, x8, lsl #3]
ffffff8000081f54:	f868796b 	ldr	x11, [x11, x8, lsl #3]
ffffff8000081f58:	9295f575 	mov	x21, #0xffffffffffff5054    	// #-44972
ffffff8000081f5c:	f2a7e435 	movk	x21, #0x3f21, lsl #16
ffffff8000081f60:	aa0003f3 	mov	x19, x0
ffffff8000081f64:	aa1f03e9 	mov	x9, xzr
ffffff8000081f68:	a900afea 	stp	x10, x11, [sp, #8]
ffffff8000081f6c:	d000002a 	adrp	x10, ffffff8000087000 <TCR_EL1_VALUE+0x1968>
ffffff8000081f70:	910b414a 	add	x10, x10, #0x2d0
ffffff8000081f74:	d000002b 	adrp	x11, ffffff8000087000 <TCR_EL1_VALUE+0x1968>
ffffff8000081f78:	910ac16b 	add	x11, x11, #0x2b0
ffffff8000081f7c:	f874794a 	ldr	x10, [x10, x20, lsl #3]
ffffff8000081f80:	f874796b 	ldr	x11, [x11, x20, lsl #3]
ffffff8000081f84:	f2dff015 	movk	x21, #0xff80, lsl #32
ffffff8000081f88:	a901afea 	stp	x10, x11, [sp, #24]
ffffff8000081f8c:	b000002a 	adrp	x10, ffffff8000086000 <TCR_EL1_VALUE+0x968>
ffffff8000081f90:	913a454a 	add	x10, x10, #0xe91
ffffff8000081f94:	528001ab 	mov	w11, #0xd                   	// #13
ffffff8000081f98:	3869694c 	ldrb	w12, [x10, x9]
ffffff8000081f9c:	7100299f 	cmp	w12, #0xa
ffffff8000081fa0:	54000121 	b.ne	ffffff8000081fc4 <_ZN5at_os6kernel10exceptions23print_exception_context17h67ed1ce79c9c1ffbE+0xa8>  // b.any
ffffff8000081fa4:	b94002ad 	ldr	w13, [x21]
ffffff8000081fa8:	3728008d 	tbnz	w13, #5, ffffff8000081fb8 <_ZN5at_os6kernel10exceptions23print_exception_context17h67ed1ce79c9c1ffbE+0x9c>
ffffff8000081fac:	d503201f 	nop
ffffff8000081fb0:	b94002ad 	ldr	w13, [x21]
ffffff8000081fb4:	362fffcd 	tbz	w13, #5, ffffff8000081fac <_ZN5at_os6kernel10exceptions23print_exception_context17h67ed1ce79c9c1ffbE+0x90>
ffffff8000081fb8:	b81ec2ab 	stur	w11, [x21, #-20]
ffffff8000081fbc:	14000002 	b	ffffff8000081fc4 <_ZN5at_os6kernel10exceptions23print_exception_context17h67ed1ce79c9c1ffbE+0xa8>
ffffff8000081fc0:	d503201f 	nop
ffffff8000081fc4:	b94002ad 	ldr	w13, [x21]
ffffff8000081fc8:	362fffcd 	tbz	w13, #5, ffffff8000081fc0 <_ZN5at_os6kernel10exceptions23print_exception_context17h67ed1ce79c9c1ffbE+0xa4>
ffffff8000081fcc:	91000529 	add	x9, x9, #0x1
ffffff8000081fd0:	b81ec2ac 	stur	w12, [x21, #-20]
ffffff8000081fd4:	f100653f 	cmp	x9, #0x19
ffffff8000081fd8:	54fffe01 	b.ne	ffffff8000081f98 <_ZN5at_os6kernel10exceptions23print_exception_context17h67ed1ce79c9c1ffbE+0x7c>  // b.any
ffffff8000081fdc:	14000002 	b	ffffff8000081fe4 <_ZN5at_os6kernel10exceptions23print_exception_context17h67ed1ce79c9c1ffbE+0xc8>
ffffff8000081fe0:	d503201f 	nop
ffffff8000081fe4:	b94002a9 	ldr	w9, [x21]
ffffff8000081fe8:	362fffc9 	tbz	w9, #5, ffffff8000081fe0 <_ZN5at_os6kernel10exceptions23print_exception_context17h67ed1ce79c9c1ffbE+0xc4>
ffffff8000081fec:	528001a9 	mov	w9, #0xd                   	// #13
ffffff8000081ff0:	b81ec2a9 	stur	w9, [x21, #-20]
ffffff8000081ff4:	b94002a9 	ldr	w9, [x21]
ffffff8000081ff8:	37280089 	tbnz	w9, #5, ffffff8000082008 <_ZN5at_os6kernel10exceptions23print_exception_context17h67ed1ce79c9c1ffbE+0xec>
ffffff8000081ffc:	d503201f 	nop
ffffff8000082000:	b94002a9 	ldr	w9, [x21]
ffffff8000082004:	362fffc9 	tbz	w9, #5, ffffff8000081ffc <_ZN5at_os6kernel10exceptions23print_exception_context17h67ed1ce79c9c1ffbE+0xe0>
ffffff8000082008:	52800149 	mov	w9, #0xa                   	// #10
ffffff800008200c:	f0fffff6 	adrp	x22, ffffff8000081000 <el11t_sync>
ffffff8000082010:	9137a2d6 	add	x22, x22, #0xde8
ffffff8000082014:	b81ec2a9 	stur	w9, [x21, #-20]
ffffff8000082018:	910023e9 	add	x9, sp, #0x8
ffffff800008201c:	b0000017 	adrp	x23, ffffff8000083000 <handle_exception_el1+0x5a4>
ffffff8000082020:	9127f2f7 	add	x23, x23, #0x9fc
ffffff8000082024:	390173e8 	strb	w8, [sp, #92]
ffffff8000082028:	910173e8 	add	x8, sp, #0x5c
ffffff800008202c:	90000021 	adrp	x1, ffffff8000086000 <TCR_EL1_VALUE+0x968>
ffffff8000082030:	913ee021 	add	x1, x1, #0xfb8
ffffff8000082034:	90000022 	adrp	x2, ffffff8000086000 <TCR_EL1_VALUE+0x968>
ffffff8000082038:	9100e842 	add	x2, x2, #0x3a
ffffff800008203c:	91017fe0 	add	x0, sp, #0x5f
ffffff8000082040:	9100c3e3 	add	x3, sp, #0x30
ffffff8000082044:	a9035be9 	stp	x9, x22, [sp, #48]
ffffff8000082048:	a9045fe8 	stp	x8, x23, [sp, #64]
ffffff800008204c:	94000747 	bl	ffffff8000083d68 <_ZN4core3fmt5write17h4e09d17c17eebf64E>
ffffff8000082050:	370020c0 	tbnz	w0, #0, ffffff8000082468 <_ZN5at_os6kernel10exceptions23print_exception_context17h67ed1ce79c9c1ffbE+0x54c>
ffffff8000082054:	b94002a8 	ldr	w8, [x21]
ffffff8000082058:	37280088 	tbnz	w8, #5, ffffff8000082068 <_ZN5at_os6kernel10exceptions23print_exception_context17h67ed1ce79c9c1ffbE+0x14c>
ffffff800008205c:	d503201f 	nop
ffffff8000082060:	b94002a8 	ldr	w8, [x21]
ffffff8000082064:	362fffc8 	tbz	w8, #5, ffffff800008205c <_ZN5at_os6kernel10exceptions23print_exception_context17h67ed1ce79c9c1ffbE+0x140>
ffffff8000082068:	528001a8 	mov	w8, #0xd                   	// #13
ffffff800008206c:	b81ec2a8 	stur	w8, [x21, #-20]
ffffff8000082070:	b94002a8 	ldr	w8, [x21]
ffffff8000082074:	37280088 	tbnz	w8, #5, ffffff8000082084 <_ZN5at_os6kernel10exceptions23print_exception_context17h67ed1ce79c9c1ffbE+0x168>
ffffff8000082078:	d503201f 	nop
ffffff800008207c:	b94002a8 	ldr	w8, [x21]
ffffff8000082080:	362fffc8 	tbz	w8, #5, ffffff8000082078 <_ZN5at_os6kernel10exceptions23print_exception_context17h67ed1ce79c9c1ffbE+0x15c>
ffffff8000082084:	52800148 	mov	w8, #0xa                   	// #10
ffffff8000082088:	90000021 	adrp	x1, ffffff8000086000 <TCR_EL1_VALUE+0x968>
ffffff800008208c:	913ee021 	add	x1, x1, #0xfb8
ffffff8000082090:	b81ec2a8 	stur	w8, [x21, #-20]
ffffff8000082094:	910063e8 	add	x8, sp, #0x18
ffffff8000082098:	90000022 	adrp	x2, ffffff8000086000 <TCR_EL1_VALUE+0x968>
ffffff800008209c:	91012842 	add	x2, x2, #0x4a
ffffff80000820a0:	a9035be8 	stp	x8, x22, [sp, #48]
ffffff80000820a4:	910173e8 	add	x8, sp, #0x5c
ffffff80000820a8:	91017fe0 	add	x0, sp, #0x5f
ffffff80000820ac:	9100c3e3 	add	x3, sp, #0x30
ffffff80000820b0:	390173f4 	strb	w20, [sp, #92]
ffffff80000820b4:	a9045fe8 	stp	x8, x23, [sp, #64]
ffffff80000820b8:	9400072c 	bl	ffffff8000083d68 <_ZN4core3fmt5write17h4e09d17c17eebf64E>
ffffff80000820bc:	37001e80 	tbnz	w0, #0, ffffff800008248c <_ZN5at_os6kernel10exceptions23print_exception_context17h67ed1ce79c9c1ffbE+0x570>
ffffff80000820c0:	b94002a8 	ldr	w8, [x21]
ffffff80000820c4:	37280088 	tbnz	w8, #5, ffffff80000820d4 <_ZN5at_os6kernel10exceptions23print_exception_context17h67ed1ce79c9c1ffbE+0x1b8>
ffffff80000820c8:	d503201f 	nop
ffffff80000820cc:	b94002a8 	ldr	w8, [x21]
ffffff80000820d0:	362fffc8 	tbz	w8, #5, ffffff80000820c8 <_ZN5at_os6kernel10exceptions23print_exception_context17h67ed1ce79c9c1ffbE+0x1ac>
ffffff80000820d4:	528001a8 	mov	w8, #0xd                   	// #13
ffffff80000820d8:	b81ec2a8 	stur	w8, [x21, #-20]
ffffff80000820dc:	b94002a8 	ldr	w8, [x21]
ffffff80000820e0:	37280088 	tbnz	w8, #5, ffffff80000820f0 <_ZN5at_os6kernel10exceptions23print_exception_context17h67ed1ce79c9c1ffbE+0x1d4>
ffffff80000820e4:	d503201f 	nop
ffffff80000820e8:	b94002a8 	ldr	w8, [x21]
ffffff80000820ec:	362fffc8 	tbz	w8, #5, ffffff80000820e4 <_ZN5at_os6kernel10exceptions23print_exception_context17h67ed1ce79c9c1ffbE+0x1c8>
ffffff80000820f0:	52800148 	mov	w8, #0xa                   	// #10
ffffff80000820f4:	91040269 	add	x9, x19, #0x100
ffffff80000820f8:	b0000016 	adrp	x22, ffffff8000083000 <handle_exception_el1+0x5a4>
ffffff80000820fc:	9133c2d6 	add	x22, x22, #0xcf0
ffffff8000082100:	90000021 	adrp	x1, ffffff8000086000 <TCR_EL1_VALUE+0x968>
ffffff8000082104:	913ee021 	add	x1, x1, #0xfb8
ffffff8000082108:	90000022 	adrp	x2, ffffff8000086000 <TCR_EL1_VALUE+0x968>
ffffff800008210c:	913aa842 	add	x2, x2, #0xeaa
ffffff8000082110:	91017fe0 	add	x0, sp, #0x5f
ffffff8000082114:	9100c3e3 	add	x3, sp, #0x30
ffffff8000082118:	b81ec2a8 	stur	w8, [x21, #-20]
ffffff800008211c:	a9035be9 	stp	x9, x22, [sp, #48]
ffffff8000082120:	94000712 	bl	ffffff8000083d68 <_ZN4core3fmt5write17h4e09d17c17eebf64E>
ffffff8000082124:	36000160 	tbz	w0, #0, ffffff8000082150 <_ZN5at_os6kernel10exceptions23print_exception_context17h67ed1ce79c9c1ffbE+0x234>
ffffff8000082128:	90000020 	adrp	x0, ffffff8000086000 <TCR_EL1_VALUE+0x968>
ffffff800008212c:	91362000 	add	x0, x0, #0xd88
ffffff8000082130:	90000023 	adrp	x3, ffffff8000086000 <TCR_EL1_VALUE+0x968>
ffffff8000082134:	9135a063 	add	x3, x3, #0xd68
ffffff8000082138:	90000024 	adrp	x4, ffffff8000086000 <TCR_EL1_VALUE+0x968>
ffffff800008213c:	913dc084 	add	x4, x4, #0xf70
ffffff8000082140:	91017fe2 	add	x2, sp, #0x5f
ffffff8000082144:	52800561 	mov	w1, #0x2b                  	// #43
ffffff8000082148:	94000c5c 	bl	ffffff80000852b8 <_ZN4core6result13unwrap_failed17h89589bbb6ce8ba23E>
ffffff800008214c:	d503201f 	nop
ffffff8000082150:	b94002a8 	ldr	w8, [x21]
ffffff8000082154:	362fffc8 	tbz	w8, #5, ffffff800008214c <_ZN5at_os6kernel10exceptions23print_exception_context17h67ed1ce79c9c1ffbE+0x230>
ffffff8000082158:	528001a8 	mov	w8, #0xd                   	// #13
ffffff800008215c:	b81ec2a8 	stur	w8, [x21, #-20]
ffffff8000082160:	b94002a8 	ldr	w8, [x21]
ffffff8000082164:	37280088 	tbnz	w8, #5, ffffff8000082174 <_ZN5at_os6kernel10exceptions23print_exception_context17h67ed1ce79c9c1ffbE+0x258>
ffffff8000082168:	d503201f 	nop
ffffff800008216c:	b94002a8 	ldr	w8, [x21]
ffffff8000082170:	362fffc8 	tbz	w8, #5, ffffff8000082168 <_ZN5at_os6kernel10exceptions23print_exception_context17h67ed1ce79c9c1ffbE+0x24c>
ffffff8000082174:	52800148 	mov	w8, #0xa                   	// #10
ffffff8000082178:	91042269 	add	x9, x19, #0x108
ffffff800008217c:	90000021 	adrp	x1, ffffff8000086000 <TCR_EL1_VALUE+0x968>
ffffff8000082180:	913ee021 	add	x1, x1, #0xfb8
ffffff8000082184:	90000022 	adrp	x2, ffffff8000086000 <TCR_EL1_VALUE+0x968>
ffffff8000082188:	913ae842 	add	x2, x2, #0xeba
ffffff800008218c:	91017fe0 	add	x0, sp, #0x5f
ffffff8000082190:	9100c3e3 	add	x3, sp, #0x30
ffffff8000082194:	b81ec2a8 	stur	w8, [x21, #-20]
ffffff8000082198:	a9035be9 	stp	x9, x22, [sp, #48]
ffffff800008219c:	940006f3 	bl	ffffff8000083d68 <_ZN4core3fmt5write17h4e09d17c17eebf64E>
ffffff80000821a0:	37001880 	tbnz	w0, #0, ffffff80000824b0 <_ZN5at_os6kernel10exceptions23print_exception_context17h67ed1ce79c9c1ffbE+0x594>
ffffff80000821a4:	b94002a8 	ldr	w8, [x21]
ffffff80000821a8:	37280088 	tbnz	w8, #5, ffffff80000821b8 <_ZN5at_os6kernel10exceptions23print_exception_context17h67ed1ce79c9c1ffbE+0x29c>
ffffff80000821ac:	d503201f 	nop
ffffff80000821b0:	b94002a8 	ldr	w8, [x21]
ffffff80000821b4:	362fffc8 	tbz	w8, #5, ffffff80000821ac <_ZN5at_os6kernel10exceptions23print_exception_context17h67ed1ce79c9c1ffbE+0x290>
ffffff80000821b8:	528001a8 	mov	w8, #0xd                   	// #13
ffffff80000821bc:	b81ec2a8 	stur	w8, [x21, #-20]
ffffff80000821c0:	b94002a8 	ldr	w8, [x21]
ffffff80000821c4:	37280088 	tbnz	w8, #5, ffffff80000821d4 <_ZN5at_os6kernel10exceptions23print_exception_context17h67ed1ce79c9c1ffbE+0x2b8>
ffffff80000821c8:	d503201f 	nop
ffffff80000821cc:	b94002a8 	ldr	w8, [x21]
ffffff80000821d0:	362fffc8 	tbz	w8, #5, ffffff80000821c8 <_ZN5at_os6kernel10exceptions23print_exception_context17h67ed1ce79c9c1ffbE+0x2ac>
ffffff80000821d4:	52800148 	mov	w8, #0xa                   	// #10
ffffff80000821d8:	91044269 	add	x9, x19, #0x110
ffffff80000821dc:	90000021 	adrp	x1, ffffff8000086000 <TCR_EL1_VALUE+0x968>
ffffff80000821e0:	913ee021 	add	x1, x1, #0xfb8
ffffff80000821e4:	90000022 	adrp	x2, ffffff8000086000 <TCR_EL1_VALUE+0x968>
ffffff80000821e8:	913b2842 	add	x2, x2, #0xeca
ffffff80000821ec:	91017fe0 	add	x0, sp, #0x5f
ffffff80000821f0:	9100c3e3 	add	x3, sp, #0x30
ffffff80000821f4:	b81ec2a8 	stur	w8, [x21, #-20]
ffffff80000821f8:	a9035be9 	stp	x9, x22, [sp, #48]
ffffff80000821fc:	940006db 	bl	ffffff8000083d68 <_ZN4core3fmt5write17h4e09d17c17eebf64E>
ffffff8000082200:	36000160 	tbz	w0, #0, ffffff800008222c <_ZN5at_os6kernel10exceptions23print_exception_context17h67ed1ce79c9c1ffbE+0x310>
ffffff8000082204:	90000020 	adrp	x0, ffffff8000086000 <TCR_EL1_VALUE+0x968>
ffffff8000082208:	91362000 	add	x0, x0, #0xd88
ffffff800008220c:	90000023 	adrp	x3, ffffff8000086000 <TCR_EL1_VALUE+0x968>
ffffff8000082210:	9135a063 	add	x3, x3, #0xd68
ffffff8000082214:	90000024 	adrp	x4, ffffff8000086000 <TCR_EL1_VALUE+0x968>
ffffff8000082218:	913d0084 	add	x4, x4, #0xf40
ffffff800008221c:	91017fe2 	add	x2, sp, #0x5f
ffffff8000082220:	52800561 	mov	w1, #0x2b                  	// #43
ffffff8000082224:	94000c25 	bl	ffffff80000852b8 <_ZN4core6result13unwrap_failed17h89589bbb6ce8ba23E>
ffffff8000082228:	d503201f 	nop
ffffff800008222c:	b94002a8 	ldr	w8, [x21]
ffffff8000082230:	362fffc8 	tbz	w8, #5, ffffff8000082228 <_ZN5at_os6kernel10exceptions23print_exception_context17h67ed1ce79c9c1ffbE+0x30c>
ffffff8000082234:	528001a8 	mov	w8, #0xd                   	// #13
ffffff8000082238:	b81ec2a8 	stur	w8, [x21, #-20]
ffffff800008223c:	b94002a8 	ldr	w8, [x21]
ffffff8000082240:	37280088 	tbnz	w8, #5, ffffff8000082250 <_ZN5at_os6kernel10exceptions23print_exception_context17h67ed1ce79c9c1ffbE+0x334>
ffffff8000082244:	d503201f 	nop
ffffff8000082248:	b94002a8 	ldr	w8, [x21]
ffffff800008224c:	362fffc8 	tbz	w8, #5, ffffff8000082244 <_ZN5at_os6kernel10exceptions23print_exception_context17h67ed1ce79c9c1ffbE+0x328>
ffffff8000082250:	52800148 	mov	w8, #0xa                   	// #10
ffffff8000082254:	91046269 	add	x9, x19, #0x118
ffffff8000082258:	90000021 	adrp	x1, ffffff8000086000 <TCR_EL1_VALUE+0x968>
ffffff800008225c:	913ee021 	add	x1, x1, #0xfb8
ffffff8000082260:	90000022 	adrp	x2, ffffff8000086000 <TCR_EL1_VALUE+0x968>
ffffff8000082264:	913b6842 	add	x2, x2, #0xeda
ffffff8000082268:	91017fe0 	add	x0, sp, #0x5f
ffffff800008226c:	9100c3e3 	add	x3, sp, #0x30
ffffff8000082270:	b81ec2a8 	stur	w8, [x21, #-20]
ffffff8000082274:	a9035be9 	stp	x9, x22, [sp, #48]
ffffff8000082278:	940006bc 	bl	ffffff8000083d68 <_ZN4core3fmt5write17h4e09d17c17eebf64E>
ffffff800008227c:	370012c0 	tbnz	w0, #0, ffffff80000824d4 <_ZN5at_os6kernel10exceptions23print_exception_context17h67ed1ce79c9c1ffbE+0x5b8>
ffffff8000082280:	b94002a8 	ldr	w8, [x21]
ffffff8000082284:	37280088 	tbnz	w8, #5, ffffff8000082294 <_ZN5at_os6kernel10exceptions23print_exception_context17h67ed1ce79c9c1ffbE+0x378>
ffffff8000082288:	d503201f 	nop
ffffff800008228c:	b94002a8 	ldr	w8, [x21]
ffffff8000082290:	362fffc8 	tbz	w8, #5, ffffff8000082288 <_ZN5at_os6kernel10exceptions23print_exception_context17h67ed1ce79c9c1ffbE+0x36c>
ffffff8000082294:	528001a8 	mov	w8, #0xd                   	// #13
ffffff8000082298:	b81ec2a8 	stur	w8, [x21, #-20]
ffffff800008229c:	b94002a9 	ldr	w9, [x21]
ffffff80000822a0:	37280089 	tbnz	w9, #5, ffffff80000822b0 <_ZN5at_os6kernel10exceptions23print_exception_context17h67ed1ce79c9c1ffbE+0x394>
ffffff80000822a4:	d503201f 	nop
ffffff80000822a8:	b94002a9 	ldr	w9, [x21]
ffffff80000822ac:	362fffc9 	tbz	w9, #5, ffffff80000822a4 <_ZN5at_os6kernel10exceptions23print_exception_context17h67ed1ce79c9c1ffbE+0x388>
ffffff80000822b0:	5280014a 	mov	w10, #0xa                   	// #10
ffffff80000822b4:	aa1f03e9 	mov	x9, xzr
ffffff80000822b8:	b81ec2aa 	stur	w10, [x21, #-20]
ffffff80000822bc:	9000002a 	adrp	x10, ffffff8000086000 <TCR_EL1_VALUE+0x968>
ffffff80000822c0:	913ba94a 	add	x10, x10, #0xeea
ffffff80000822c4:	3869694b 	ldrb	w11, [x10, x9]
ffffff80000822c8:	7100297f 	cmp	w11, #0xa
ffffff80000822cc:	54000121 	b.ne	ffffff80000822f0 <_ZN5at_os6kernel10exceptions23print_exception_context17h67ed1ce79c9c1ffbE+0x3d4>  // b.any
ffffff80000822d0:	b94002ac 	ldr	w12, [x21]
ffffff80000822d4:	3728008c 	tbnz	w12, #5, ffffff80000822e4 <_ZN5at_os6kernel10exceptions23print_exception_context17h67ed1ce79c9c1ffbE+0x3c8>
ffffff80000822d8:	d503201f 	nop
ffffff80000822dc:	b94002ac 	ldr	w12, [x21]
ffffff80000822e0:	362fffcc 	tbz	w12, #5, ffffff80000822d8 <_ZN5at_os6kernel10exceptions23print_exception_context17h67ed1ce79c9c1ffbE+0x3bc>
ffffff80000822e4:	b81ec2a8 	stur	w8, [x21, #-20]
ffffff80000822e8:	14000002 	b	ffffff80000822f0 <_ZN5at_os6kernel10exceptions23print_exception_context17h67ed1ce79c9c1ffbE+0x3d4>
ffffff80000822ec:	d503201f 	nop
ffffff80000822f0:	b94002ac 	ldr	w12, [x21]
ffffff80000822f4:	362fffcc 	tbz	w12, #5, ffffff80000822ec <_ZN5at_os6kernel10exceptions23print_exception_context17h67ed1ce79c9c1ffbE+0x3d0>
ffffff80000822f8:	91000529 	add	x9, x9, #0x1
ffffff80000822fc:	b81ec2ab 	stur	w11, [x21, #-20]
ffffff8000082300:	f100293f 	cmp	x9, #0xa
ffffff8000082304:	54fffe01 	b.ne	ffffff80000822c4 <_ZN5at_os6kernel10exceptions23print_exception_context17h67ed1ce79c9c1ffbE+0x3a8>  // b.any
ffffff8000082308:	14000002 	b	ffffff8000082310 <_ZN5at_os6kernel10exceptions23print_exception_context17h67ed1ce79c9c1ffbE+0x3f4>
ffffff800008230c:	d503201f 	nop
ffffff8000082310:	b94002a8 	ldr	w8, [x21]
ffffff8000082314:	362fffc8 	tbz	w8, #5, ffffff800008230c <_ZN5at_os6kernel10exceptions23print_exception_context17h67ed1ce79c9c1ffbE+0x3f0>
ffffff8000082318:	528001b7 	mov	w23, #0xd                   	// #13
ffffff800008231c:	b81ec2b7 	stur	w23, [x21, #-20]
ffffff8000082320:	b94002a8 	ldr	w8, [x21]
ffffff8000082324:	37280088 	tbnz	w8, #5, ffffff8000082334 <_ZN5at_os6kernel10exceptions23print_exception_context17h67ed1ce79c9c1ffbE+0x418>
ffffff8000082328:	d503201f 	nop
ffffff800008232c:	b94002a8 	ldr	w8, [x21]
ffffff8000082330:	362fffc8 	tbz	w8, #5, ffffff8000082328 <_ZN5at_os6kernel10exceptions23print_exception_context17h67ed1ce79c9c1ffbE+0x40c>
ffffff8000082334:	aa1f03f8 	mov	x24, xzr
ffffff8000082338:	52800159 	mov	w25, #0xa                   	// #10
ffffff800008233c:	9100227a 	add	x26, x19, #0x8
ffffff8000082340:	b000001b 	adrp	x27, ffffff8000083000 <handle_exception_el1+0x5a4>
ffffff8000082344:	9130637b 	add	x27, x27, #0xc18
ffffff8000082348:	90000033 	adrp	x19, ffffff8000086000 <TCR_EL1_VALUE+0x968>
ffffff800008234c:	913ee273 	add	x19, x19, #0xfb8
ffffff8000082350:	9100a3fc 	add	x28, sp, #0x28
ffffff8000082354:	90000034 	adrp	x20, ffffff8000086000 <TCR_EL1_VALUE+0x968>
ffffff8000082358:	913bd294 	add	x20, x20, #0xef4
ffffff800008235c:	b81ec2b9 	stur	w25, [x21, #-20]
ffffff8000082360:	14000005 	b	ffffff8000082374 <_ZN5at_os6kernel10exceptions23print_exception_context17h67ed1ce79c9c1ffbE+0x458>
ffffff8000082364:	91000718 	add	x24, x24, #0x1
ffffff8000082368:	b81ec2b9 	stur	w25, [x21, #-20]
ffffff800008236c:	f1007f1f 	cmp	x24, #0x1f
ffffff8000082370:	540002c0 	b.eq	ffffff80000823c8 <_ZN5at_os6kernel10exceptions23print_exception_context17h67ed1ce79c9c1ffbE+0x4ac>  // b.none
ffffff8000082374:	8b180f48 	add	x8, x26, x24, lsl #3
ffffff8000082378:	91017fe0 	add	x0, sp, #0x5f
ffffff800008237c:	9100c3e3 	add	x3, sp, #0x30
ffffff8000082380:	aa1303e1 	mov	x1, x19
ffffff8000082384:	aa1403e2 	mov	x2, x20
ffffff8000082388:	a902f3f8 	stp	x24, x28, [sp, #40]
ffffff800008238c:	a903a3fb 	stp	x27, x8, [sp, #56]
ffffff8000082390:	f90027f6 	str	x22, [sp, #72]
ffffff8000082394:	94000675 	bl	ffffff8000083d68 <_ZN4core3fmt5write17h4e09d17c17eebf64E>
ffffff8000082398:	36000060 	tbz	w0, #0, ffffff80000823a4 <_ZN5at_os6kernel10exceptions23print_exception_context17h67ed1ce79c9c1ffbE+0x488>
ffffff800008239c:	1400002a 	b	ffffff8000082444 <_ZN5at_os6kernel10exceptions23print_exception_context17h67ed1ce79c9c1ffbE+0x528>
ffffff80000823a0:	d503201f 	nop
ffffff80000823a4:	b94002a8 	ldr	w8, [x21]
ffffff80000823a8:	362fffc8 	tbz	w8, #5, ffffff80000823a0 <_ZN5at_os6kernel10exceptions23print_exception_context17h67ed1ce79c9c1ffbE+0x484>
ffffff80000823ac:	b81ec2b7 	stur	w23, [x21, #-20]
ffffff80000823b0:	b94002a8 	ldr	w8, [x21]
ffffff80000823b4:	372ffd88 	tbnz	w8, #5, ffffff8000082364 <_ZN5at_os6kernel10exceptions23print_exception_context17h67ed1ce79c9c1ffbE+0x448>
ffffff80000823b8:	d503201f 	nop
ffffff80000823bc:	b94002a8 	ldr	w8, [x21]
ffffff80000823c0:	362fffc8 	tbz	w8, #5, ffffff80000823b8 <_ZN5at_os6kernel10exceptions23print_exception_context17h67ed1ce79c9c1ffbE+0x49c>
ffffff80000823c4:	17ffffe8 	b	ffffff8000082364 <_ZN5at_os6kernel10exceptions23print_exception_context17h67ed1ce79c9c1ffbE+0x448>
ffffff80000823c8:	aa1f03e8 	mov	x8, xzr
ffffff80000823cc:	528007a9 	mov	w9, #0x3d                  	// #61
ffffff80000823d0:	14000002 	b	ffffff80000823d8 <_ZN5at_os6kernel10exceptions23print_exception_context17h67ed1ce79c9c1ffbE+0x4bc>
ffffff80000823d4:	d503201f 	nop
ffffff80000823d8:	b94002aa 	ldr	w10, [x21]
ffffff80000823dc:	362fffca 	tbz	w10, #5, ffffff80000823d4 <_ZN5at_os6kernel10exceptions23print_exception_context17h67ed1ce79c9c1ffbE+0x4b8>
ffffff80000823e0:	91000508 	add	x8, x8, #0x1
ffffff80000823e4:	b81ec2a9 	stur	w9, [x21, #-20]
ffffff80000823e8:	f100651f 	cmp	x8, #0x19
ffffff80000823ec:	54ffff61 	b.ne	ffffff80000823d8 <_ZN5at_os6kernel10exceptions23print_exception_context17h67ed1ce79c9c1ffbE+0x4bc>  // b.any
ffffff80000823f0:	14000002 	b	ffffff80000823f8 <_ZN5at_os6kernel10exceptions23print_exception_context17h67ed1ce79c9c1ffbE+0x4dc>
ffffff80000823f4:	d503201f 	nop
ffffff80000823f8:	b94002a8 	ldr	w8, [x21]
ffffff80000823fc:	362fffc8 	tbz	w8, #5, ffffff80000823f4 <_ZN5at_os6kernel10exceptions23print_exception_context17h67ed1ce79c9c1ffbE+0x4d8>
ffffff8000082400:	528001a8 	mov	w8, #0xd                   	// #13
ffffff8000082404:	b81ec2a8 	stur	w8, [x21, #-20]
ffffff8000082408:	b94002a8 	ldr	w8, [x21]
ffffff800008240c:	37280088 	tbnz	w8, #5, ffffff800008241c <_ZN5at_os6kernel10exceptions23print_exception_context17h67ed1ce79c9c1ffbE+0x500>
ffffff8000082410:	d503201f 	nop
ffffff8000082414:	b94002a8 	ldr	w8, [x21]
ffffff8000082418:	362fffc8 	tbz	w8, #5, ffffff8000082410 <_ZN5at_os6kernel10exceptions23print_exception_context17h67ed1ce79c9c1ffbE+0x4f4>
ffffff800008241c:	52800148 	mov	w8, #0xa                   	// #10
ffffff8000082420:	b81ec2a8 	stur	w8, [x21, #-20]
ffffff8000082424:	a94a4ff4 	ldp	x20, x19, [sp, #160]
ffffff8000082428:	f9402bfe 	ldr	x30, [sp, #80]
ffffff800008242c:	a94957f6 	ldp	x22, x21, [sp, #144]
ffffff8000082430:	a9485ff8 	ldp	x24, x23, [sp, #128]
ffffff8000082434:	a94767fa 	ldp	x26, x25, [sp, #112]
ffffff8000082438:	a9466ffc 	ldp	x28, x27, [sp, #96]
ffffff800008243c:	9102c3ff 	add	sp, sp, #0xb0
ffffff8000082440:	d65f03c0 	ret
ffffff8000082444:	90000020 	adrp	x0, ffffff8000086000 <TCR_EL1_VALUE+0x968>
ffffff8000082448:	91362000 	add	x0, x0, #0xd88
ffffff800008244c:	90000023 	adrp	x3, ffffff8000086000 <TCR_EL1_VALUE+0x968>
ffffff8000082450:	9135a063 	add	x3, x3, #0xd68
ffffff8000082454:	90000024 	adrp	x4, ffffff8000086000 <TCR_EL1_VALUE+0x968>
ffffff8000082458:	913c4084 	add	x4, x4, #0xf10
ffffff800008245c:	91017fe2 	add	x2, sp, #0x5f
ffffff8000082460:	52800561 	mov	w1, #0x2b                  	// #43
ffffff8000082464:	94000b95 	bl	ffffff80000852b8 <_ZN4core6result13unwrap_failed17h89589bbb6ce8ba23E>
ffffff8000082468:	90000020 	adrp	x0, ffffff8000086000 <TCR_EL1_VALUE+0x968>
ffffff800008246c:	91362000 	add	x0, x0, #0xd88
ffffff8000082470:	90000023 	adrp	x3, ffffff8000086000 <TCR_EL1_VALUE+0x968>
ffffff8000082474:	9135a063 	add	x3, x3, #0xd68
ffffff8000082478:	90000024 	adrp	x4, ffffff8000086000 <TCR_EL1_VALUE+0x968>
ffffff800008247c:	913e8084 	add	x4, x4, #0xfa0
ffffff8000082480:	91017fe2 	add	x2, sp, #0x5f
ffffff8000082484:	52800561 	mov	w1, #0x2b                  	// #43
ffffff8000082488:	94000b8c 	bl	ffffff80000852b8 <_ZN4core6result13unwrap_failed17h89589bbb6ce8ba23E>
ffffff800008248c:	90000020 	adrp	x0, ffffff8000086000 <TCR_EL1_VALUE+0x968>
ffffff8000082490:	91362000 	add	x0, x0, #0xd88
ffffff8000082494:	90000023 	adrp	x3, ffffff8000086000 <TCR_EL1_VALUE+0x968>
ffffff8000082498:	9135a063 	add	x3, x3, #0xd68
ffffff800008249c:	90000024 	adrp	x4, ffffff8000086000 <TCR_EL1_VALUE+0x968>
ffffff80000824a0:	913e2084 	add	x4, x4, #0xf88
ffffff80000824a4:	91017fe2 	add	x2, sp, #0x5f
ffffff80000824a8:	52800561 	mov	w1, #0x2b                  	// #43
ffffff80000824ac:	94000b83 	bl	ffffff80000852b8 <_ZN4core6result13unwrap_failed17h89589bbb6ce8ba23E>
ffffff80000824b0:	90000020 	adrp	x0, ffffff8000086000 <TCR_EL1_VALUE+0x968>
ffffff80000824b4:	91362000 	add	x0, x0, #0xd88
ffffff80000824b8:	90000023 	adrp	x3, ffffff8000086000 <TCR_EL1_VALUE+0x968>
ffffff80000824bc:	9135a063 	add	x3, x3, #0xd68
ffffff80000824c0:	90000024 	adrp	x4, ffffff8000086000 <TCR_EL1_VALUE+0x968>
ffffff80000824c4:	913d6084 	add	x4, x4, #0xf58
ffffff80000824c8:	91017fe2 	add	x2, sp, #0x5f
ffffff80000824cc:	52800561 	mov	w1, #0x2b                  	// #43
ffffff80000824d0:	94000b7a 	bl	ffffff80000852b8 <_ZN4core6result13unwrap_failed17h89589bbb6ce8ba23E>
ffffff80000824d4:	90000020 	adrp	x0, ffffff8000086000 <TCR_EL1_VALUE+0x968>
ffffff80000824d8:	91362000 	add	x0, x0, #0xd88
ffffff80000824dc:	90000023 	adrp	x3, ffffff8000086000 <TCR_EL1_VALUE+0x968>
ffffff80000824e0:	9135a063 	add	x3, x3, #0xd68
ffffff80000824e4:	90000024 	adrp	x4, ffffff8000086000 <TCR_EL1_VALUE+0x968>
ffffff80000824e8:	913ca084 	add	x4, x4, #0xf28
ffffff80000824ec:	91017fe2 	add	x2, sp, #0x5f
ffffff80000824f0:	52800561 	mov	w1, #0x2b                  	// #43
ffffff80000824f4:	94000b71 	bl	ffffff80000852b8 <_ZN4core6result13unwrap_failed17h89589bbb6ce8ba23E>

ffffff80000824f8 <_ZN5at_os7the_end17hb4ebf2ebd834f4dfE>:
ffffff80000824f8:	f81f0ffe 	str	x30, [sp, #-16]!
ffffff80000824fc:	9295f568 	mov	x8, #0xffffffffffff5054    	// #-44972
ffffff8000082500:	aa1f03e9 	mov	x9, xzr
ffffff8000082504:	b000002a 	adrp	x10, ffffff8000087000 <TCR_EL1_VALUE+0x1968>
ffffff8000082508:	9105a14a 	add	x10, x10, #0x168
ffffff800008250c:	f2a7e428 	movk	x8, #0x3f21, lsl #16
ffffff8000082510:	528001ab 	mov	w11, #0xd                   	// #13
ffffff8000082514:	f2dff008 	movk	x8, #0xff80, lsl #32
ffffff8000082518:	3869694c 	ldrb	w12, [x10, x9]
ffffff800008251c:	7100299f 	cmp	w12, #0xa
ffffff8000082520:	54000121 	b.ne	ffffff8000082544 <_ZN5at_os7the_end17hb4ebf2ebd834f4dfE+0x4c>  // b.any
ffffff8000082524:	b940010d 	ldr	w13, [x8]
ffffff8000082528:	3728008d 	tbnz	w13, #5, ffffff8000082538 <_ZN5at_os7the_end17hb4ebf2ebd834f4dfE+0x40>
ffffff800008252c:	d503201f 	nop
ffffff8000082530:	b940010d 	ldr	w13, [x8]
ffffff8000082534:	362fffcd 	tbz	w13, #5, ffffff800008252c <_ZN5at_os7the_end17hb4ebf2ebd834f4dfE+0x34>
ffffff8000082538:	b81ec10b 	stur	w11, [x8, #-20]
ffffff800008253c:	14000002 	b	ffffff8000082544 <_ZN5at_os7the_end17hb4ebf2ebd834f4dfE+0x4c>
ffffff8000082540:	d503201f 	nop
ffffff8000082544:	b940010d 	ldr	w13, [x8]
ffffff8000082548:	362fffcd 	tbz	w13, #5, ffffff8000082540 <_ZN5at_os7the_end17hb4ebf2ebd834f4dfE+0x48>
ffffff800008254c:	91000529 	add	x9, x9, #0x1
ffffff8000082550:	b81ec10c 	stur	w12, [x8, #-20]
ffffff8000082554:	f100a13f 	cmp	x9, #0x28
ffffff8000082558:	54fffe01 	b.ne	ffffff8000082518 <_ZN5at_os7the_end17hb4ebf2ebd834f4dfE+0x20>  // b.any
ffffff800008255c:	14000002 	b	ffffff8000082564 <_ZN5at_os7the_end17hb4ebf2ebd834f4dfE+0x6c>
ffffff8000082560:	d503201f 	nop
ffffff8000082564:	b9400109 	ldr	w9, [x8]
ffffff8000082568:	362fffc9 	tbz	w9, #5, ffffff8000082560 <_ZN5at_os7the_end17hb4ebf2ebd834f4dfE+0x68>
ffffff800008256c:	528001a9 	mov	w9, #0xd                   	// #13
ffffff8000082570:	b81ec109 	stur	w9, [x8, #-20]
ffffff8000082574:	b940010a 	ldr	w10, [x8]
ffffff8000082578:	3728008a 	tbnz	w10, #5, ffffff8000082588 <_ZN5at_os7the_end17hb4ebf2ebd834f4dfE+0x90>
ffffff800008257c:	d503201f 	nop
ffffff8000082580:	b940010a 	ldr	w10, [x8]
ffffff8000082584:	362fffca 	tbz	w10, #5, ffffff800008257c <_ZN5at_os7the_end17hb4ebf2ebd834f4dfE+0x84>
ffffff8000082588:	5280014b 	mov	w11, #0xa                   	// #10
ffffff800008258c:	aa1f03ea 	mov	x10, xzr
ffffff8000082590:	b81ec10b 	stur	w11, [x8, #-20]
ffffff8000082594:	b000002b 	adrp	x11, ffffff8000087000 <TCR_EL1_VALUE+0x1968>
ffffff8000082598:	9106416b 	add	x11, x11, #0x190
ffffff800008259c:	386a696c 	ldrb	w12, [x11, x10]
ffffff80000825a0:	7100299f 	cmp	w12, #0xa
ffffff80000825a4:	54000121 	b.ne	ffffff80000825c8 <_ZN5at_os7the_end17hb4ebf2ebd834f4dfE+0xd0>  // b.any
ffffff80000825a8:	b940010d 	ldr	w13, [x8]
ffffff80000825ac:	3728008d 	tbnz	w13, #5, ffffff80000825bc <_ZN5at_os7the_end17hb4ebf2ebd834f4dfE+0xc4>
ffffff80000825b0:	d503201f 	nop
ffffff80000825b4:	b940010d 	ldr	w13, [x8]
ffffff80000825b8:	362fffcd 	tbz	w13, #5, ffffff80000825b0 <_ZN5at_os7the_end17hb4ebf2ebd834f4dfE+0xb8>
ffffff80000825bc:	b81ec109 	stur	w9, [x8, #-20]
ffffff80000825c0:	14000002 	b	ffffff80000825c8 <_ZN5at_os7the_end17hb4ebf2ebd834f4dfE+0xd0>
ffffff80000825c4:	d503201f 	nop
ffffff80000825c8:	b940010d 	ldr	w13, [x8]
ffffff80000825cc:	362fffcd 	tbz	w13, #5, ffffff80000825c4 <_ZN5at_os7the_end17hb4ebf2ebd834f4dfE+0xcc>
ffffff80000825d0:	9100054a 	add	x10, x10, #0x1
ffffff80000825d4:	b81ec10c 	stur	w12, [x8, #-20]
ffffff80000825d8:	f100fd5f 	cmp	x10, #0x3f
ffffff80000825dc:	54fffe01 	b.ne	ffffff800008259c <_ZN5at_os7the_end17hb4ebf2ebd834f4dfE+0xa4>  // b.any
ffffff80000825e0:	14000002 	b	ffffff80000825e8 <_ZN5at_os7the_end17hb4ebf2ebd834f4dfE+0xf0>
ffffff80000825e4:	d503201f 	nop
ffffff80000825e8:	b9400109 	ldr	w9, [x8]
ffffff80000825ec:	362fffc9 	tbz	w9, #5, ffffff80000825e4 <_ZN5at_os7the_end17hb4ebf2ebd834f4dfE+0xec>
ffffff80000825f0:	528001a9 	mov	w9, #0xd                   	// #13
ffffff80000825f4:	b81ec109 	stur	w9, [x8, #-20]
ffffff80000825f8:	b9400109 	ldr	w9, [x8]
ffffff80000825fc:	37280089 	tbnz	w9, #5, ffffff800008260c <_ZN5at_os7the_end17hb4ebf2ebd834f4dfE+0x114>
ffffff8000082600:	d503201f 	nop
ffffff8000082604:	b9400109 	ldr	w9, [x8]
ffffff8000082608:	362fffc9 	tbz	w9, #5, ffffff8000082600 <_ZN5at_os7the_end17hb4ebf2ebd834f4dfE+0x108>
ffffff800008260c:	52800149 	mov	w9, #0xa                   	// #10
ffffff8000082610:	b81ec109 	stur	w9, [x8, #-20]
ffffff8000082614:	d53be008 	mrs	x8, cntfrq_el0
ffffff8000082618:	d53be029 	mrs	x9, cntpct_el0
ffffff800008261c:	ab080128 	adds	x8, x9, x8
ffffff8000082620:	54000142 	b.cs	ffffff8000082648 <_ZN5at_os7the_end17hb4ebf2ebd834f4dfE+0x150>  // b.hs, b.nlast
ffffff8000082624:	d51be248 	msr	cntp_cval_el0, x8
ffffff8000082628:	d5033fdf 	isb
ffffff800008262c:	d53be228 	mrs	x8, cntp_ctl_el0
ffffff8000082630:	d5033fdf 	isb
ffffff8000082634:	927ff908 	and	x8, x8, #0xfffffffffffffffe
ffffff8000082638:	d51be228 	msr	cntp_ctl_el0, x8
ffffff800008263c:	d5033fdf 	isb
ffffff8000082640:	d5033fdf 	isb
ffffff8000082644:	17ffffff 	b	ffffff8000082640 <_ZN5at_os7the_end17hb4ebf2ebd834f4dfE+0x148>
ffffff8000082648:	90000020 	adrp	x0, ffffff8000086000 <TCR_EL1_VALUE+0x968>
ffffff800008264c:	913fa000 	add	x0, x0, #0xfe8
ffffff8000082650:	b0000022 	adrp	x2, ffffff8000087000 <TCR_EL1_VALUE+0x1968>
ffffff8000082654:	91002042 	add	x2, x2, #0x8
ffffff8000082658:	528003a1 	mov	w1, #0x1d                  	// #29
ffffff800008265c:	94000b0b 	bl	ffffff8000085288 <_ZN4core6option13expect_failed17hb35fc25fa37940a7E>

ffffff8000082660 <_ZN69_$LT$at_os..kernel..peripherals..Uart$u20$as$u20$core..fmt..Write$GT$9write_str17h61dc42d1f3ba071dE>:
ffffff8000082660:	b40002c2 	cbz	x2, ffffff80000826b8 <_ZN69_$LT$at_os..kernel..peripherals..Uart$u20$as$u20$core..fmt..Write$GT$9write_str17h61dc42d1f3ba071dE+0x58>
ffffff8000082664:	9295f569 	mov	x9, #0xffffffffffff5054    	// #-44972
ffffff8000082668:	8b020028 	add	x8, x1, x2
ffffff800008266c:	528001aa 	mov	w10, #0xd                   	// #13
ffffff8000082670:	f2a7e429 	movk	x9, #0x3f21, lsl #16
ffffff8000082674:	f2dff009 	movk	x9, #0xff80, lsl #32
ffffff8000082678:	3840142b 	ldrb	w11, [x1], #1
ffffff800008267c:	7100297f 	cmp	w11, #0xa
ffffff8000082680:	54000121 	b.ne	ffffff80000826a4 <_ZN69_$LT$at_os..kernel..peripherals..Uart$u20$as$u20$core..fmt..Write$GT$9write_str17h61dc42d1f3ba071dE+0x44>  // b.any
ffffff8000082684:	b940012c 	ldr	w12, [x9]
ffffff8000082688:	3728008c 	tbnz	w12, #5, ffffff8000082698 <_ZN69_$LT$at_os..kernel..peripherals..Uart$u20$as$u20$core..fmt..Write$GT$9write_str17h61dc42d1f3ba071dE+0x38>
ffffff800008268c:	d503201f 	nop
ffffff8000082690:	b940012c 	ldr	w12, [x9]
ffffff8000082694:	362fffcc 	tbz	w12, #5, ffffff800008268c <_ZN69_$LT$at_os..kernel..peripherals..Uart$u20$as$u20$core..fmt..Write$GT$9write_str17h61dc42d1f3ba071dE+0x2c>
ffffff8000082698:	b81ec12a 	stur	w10, [x9, #-20]
ffffff800008269c:	14000002 	b	ffffff80000826a4 <_ZN69_$LT$at_os..kernel..peripherals..Uart$u20$as$u20$core..fmt..Write$GT$9write_str17h61dc42d1f3ba071dE+0x44>
ffffff80000826a0:	d503201f 	nop
ffffff80000826a4:	b940012c 	ldr	w12, [x9]
ffffff80000826a8:	362fffcc 	tbz	w12, #5, ffffff80000826a0 <_ZN69_$LT$at_os..kernel..peripherals..Uart$u20$as$u20$core..fmt..Write$GT$9write_str17h61dc42d1f3ba071dE+0x40>
ffffff80000826ac:	eb08003f 	cmp	x1, x8
ffffff80000826b0:	b81ec12b 	stur	w11, [x9, #-20]
ffffff80000826b4:	54fffe21 	b.ne	ffffff8000082678 <_ZN69_$LT$at_os..kernel..peripherals..Uart$u20$as$u20$core..fmt..Write$GT$9write_str17h61dc42d1f3ba071dE+0x18>  // b.any
ffffff80000826b8:	2a1f03e0 	mov	w0, wzr
ffffff80000826bc:	d65f03c0 	ret

ffffff80000826c0 <_rust_main>:
ffffff80000826c0:	d10143ff 	sub	sp, sp, #0x50
ffffff80000826c4:	f9001bfe 	str	x30, [sp, #48]
ffffff80000826c8:	a9044ff4 	stp	x20, x19, [sp, #64]
ffffff80000826cc:	9295f573 	mov	x19, #0xffffffffffff5054    	// #-44972
ffffff80000826d0:	b0000068 	adrp	x8, ffffff800008f000 <_kernel_top>
ffffff80000826d4:	91000109 	add	x9, x8, #0x0
ffffff80000826d8:	f2a7e433 	movk	x19, #0x3f21, lsl #16
ffffff80000826dc:	b00000a8 	adrp	x8, ffffff8000097000 <_stack_top>
ffffff80000826e0:	91000108 	add	x8, x8, #0x0
ffffff80000826e4:	f2dff013 	movk	x19, #0xff80, lsl #32
ffffff80000826e8:	a900a3e9 	stp	x9, x8, [sp, #8]
ffffff80000826ec:	929fff69 	mov	x9, #0xffffffffffff0004    	// #-65532
ffffff80000826f0:	b85b0268 	ldur	w8, [x19, #-80]
ffffff80000826f4:	f2a7e409 	movk	x9, #0x3f20, lsl #16
ffffff80000826f8:	5280024a 	mov	w10, #0x12                  	// #18
ffffff80000826fc:	f2dff009 	movk	x9, #0xff80, lsl #32
ffffff8000082700:	32000108 	orr	w8, w8, #0x1
ffffff8000082704:	b81b0268 	stur	w8, [x19, #-80]
ffffff8000082708:	52800068 	mov	w8, #0x3                   	// #3
ffffff800008270c:	b9000e7f 	str	wzr, [x19, #12]
ffffff8000082710:	b81f027f 	stur	wzr, [x19, #-16]
ffffff8000082714:	b81f8268 	stur	w8, [x19, #-8]
ffffff8000082718:	528000c8 	mov	w8, #0x6                   	// #6
ffffff800008271c:	b81f4268 	stur	w8, [x19, #-12]
ffffff8000082720:	528021c8 	mov	w8, #0x10e                 	// #270
ffffff8000082724:	b9001668 	str	w8, [x19, #20]
ffffff8000082728:	b9400128 	ldr	w8, [x9]
ffffff800008272c:	33141548 	bfi	w8, w10, #12, #6
ffffff8000082730:	b9000128 	str	w8, [x9]
ffffff8000082734:	528012c8 	mov	w8, #0x96                  	// #150
ffffff8000082738:	b900913f 	str	wzr, [x9, #144]
ffffff800008273c:	d5033fdf 	isb
ffffff8000082740:	71000508 	subs	w8, w8, #0x1
ffffff8000082744:	54ffffc1 	b.ne	ffffff800008273c <_rust_main+0x7c>  // b.any
ffffff8000082748:	52980008 	mov	w8, #0xc000                	// #49152
ffffff800008274c:	b9009528 	str	w8, [x9, #148]
ffffff8000082750:	528012c8 	mov	w8, #0x96                  	// #150
ffffff8000082754:	d5033fdf 	isb
ffffff8000082758:	71000508 	subs	w8, w8, #0x1
ffffff800008275c:	54ffffc1 	b.ne	ffffff8000082754 <_rust_main+0x94>  // b.any
ffffff8000082760:	b900953f 	str	wzr, [x9, #148]
ffffff8000082764:	52800069 	mov	w9, #0x3                   	// #3
ffffff8000082768:	1280044b 	mov	w11, #0xffffffdd            	// #-35
ffffff800008276c:	b9000e69 	str	w9, [x19, #12]
ffffff8000082770:	929ff7e9 	mov	x9, #0xffffffffffff0040    	// #-65472
ffffff8000082774:	aa1f03e8 	mov	x8, xzr
ffffff8000082778:	f2a80009 	movk	x9, #0x4000, lsl #16
ffffff800008277c:	f2dff009 	movk	x9, #0xff80, lsl #32
ffffff8000082780:	b940012a 	ldr	w10, [x9]
ffffff8000082784:	0a0b014a 	and	w10, w10, w11
ffffff8000082788:	b900012a 	str	w10, [x9]
ffffff800008278c:	b940012a 	ldr	w10, [x9]
ffffff8000082790:	321f014a 	orr	w10, w10, #0x2
ffffff8000082794:	b900012a 	str	w10, [x9]
ffffff8000082798:	b0000029 	adrp	x9, ffffff8000087000 <TCR_EL1_VALUE+0x1968>
ffffff800008279c:	91073d29 	add	x9, x9, #0x1cf
ffffff80000827a0:	d5034fff 	msr	daifclr, #0xf
ffffff80000827a4:	528001aa 	mov	w10, #0xd                   	// #13
ffffff80000827a8:	3868692b 	ldrb	w11, [x9, x8]
ffffff80000827ac:	7100297f 	cmp	w11, #0xa
ffffff80000827b0:	54000121 	b.ne	ffffff80000827d4 <_rust_main+0x114>  // b.any
ffffff80000827b4:	b940026c 	ldr	w12, [x19]
ffffff80000827b8:	3728008c 	tbnz	w12, #5, ffffff80000827c8 <_rust_main+0x108>
ffffff80000827bc:	d503201f 	nop
ffffff80000827c0:	b940026c 	ldr	w12, [x19]
ffffff80000827c4:	362fffcc 	tbz	w12, #5, ffffff80000827bc <_rust_main+0xfc>
ffffff80000827c8:	b81ec26a 	stur	w10, [x19, #-20]
ffffff80000827cc:	14000002 	b	ffffff80000827d4 <_rust_main+0x114>
ffffff80000827d0:	d503201f 	nop
ffffff80000827d4:	b940026c 	ldr	w12, [x19]
ffffff80000827d8:	362fffcc 	tbz	w12, #5, ffffff80000827d0 <_rust_main+0x110>
ffffff80000827dc:	91000508 	add	x8, x8, #0x1
ffffff80000827e0:	b81ec26b 	stur	w11, [x19, #-20]
ffffff80000827e4:	f100451f 	cmp	x8, #0x11
ffffff80000827e8:	54fffe01 	b.ne	ffffff80000827a8 <_rust_main+0xe8>  // b.any
ffffff80000827ec:	14000002 	b	ffffff80000827f4 <_rust_main+0x134>
ffffff80000827f0:	d503201f 	nop
ffffff80000827f4:	b9400268 	ldr	w8, [x19]
ffffff80000827f8:	362fffc8 	tbz	w8, #5, ffffff80000827f0 <_rust_main+0x130>
ffffff80000827fc:	528001a8 	mov	w8, #0xd                   	// #13
ffffff8000082800:	b81ec268 	stur	w8, [x19, #-20]
ffffff8000082804:	b9400268 	ldr	w8, [x19]
ffffff8000082808:	37280088 	tbnz	w8, #5, ffffff8000082818 <_rust_main+0x158>
ffffff800008280c:	d503201f 	nop
ffffff8000082810:	b9400268 	ldr	w8, [x19]
ffffff8000082814:	362fffc8 	tbz	w8, #5, ffffff800008280c <_rust_main+0x14c>
ffffff8000082818:	52800148 	mov	w8, #0xa                   	// #10
ffffff800008281c:	910063e9 	add	x9, sp, #0x18
ffffff8000082820:	90000021 	adrp	x1, ffffff8000086000 <TCR_EL1_VALUE+0x968>
ffffff8000082824:	913ee021 	add	x1, x1, #0xfb8
ffffff8000082828:	b81ec268 	stur	w8, [x19, #-20]
ffffff800008282c:	90000022 	adrp	x2, ffffff8000086000 <TCR_EL1_VALUE+0x968>
ffffff8000082830:	9102cc42 	add	x2, x2, #0xb3
ffffff8000082834:	d5384248 	mrs	x8, currentel
ffffff8000082838:	d342fd08 	lsr	x8, x8, #2
ffffff800008283c:	a901a7e8 	stp	x8, x9, [sp, #24]
ffffff8000082840:	b0000008 	adrp	x8, ffffff8000083000 <handle_exception_el1+0x5a4>
ffffff8000082844:	91306108 	add	x8, x8, #0xc18
ffffff8000082848:	9100ffe0 	add	x0, sp, #0x3f
ffffff800008284c:	910083e3 	add	x3, sp, #0x20
ffffff8000082850:	f90017e8 	str	x8, [sp, #40]
ffffff8000082854:	94000545 	bl	ffffff8000083d68 <_ZN4core3fmt5write17h4e09d17c17eebf64E>
ffffff8000082858:	36000160 	tbz	w0, #0, ffffff8000082884 <_rust_main+0x1c4>
ffffff800008285c:	90000020 	adrp	x0, ffffff8000086000 <TCR_EL1_VALUE+0x968>
ffffff8000082860:	91362000 	add	x0, x0, #0xd88
ffffff8000082864:	90000023 	adrp	x3, ffffff8000086000 <TCR_EL1_VALUE+0x968>
ffffff8000082868:	9135a063 	add	x3, x3, #0xd68
ffffff800008286c:	b0000024 	adrp	x4, ffffff8000087000 <TCR_EL1_VALUE+0x1968>
ffffff8000082870:	91096084 	add	x4, x4, #0x258
ffffff8000082874:	9100ffe2 	add	x2, sp, #0x3f
ffffff8000082878:	52800561 	mov	w1, #0x2b                  	// #43
ffffff800008287c:	94000a8f 	bl	ffffff80000852b8 <_ZN4core6result13unwrap_failed17h89589bbb6ce8ba23E>
ffffff8000082880:	d503201f 	nop
ffffff8000082884:	b9400268 	ldr	w8, [x19]
ffffff8000082888:	362fffc8 	tbz	w8, #5, ffffff8000082880 <_rust_main+0x1c0>
ffffff800008288c:	528001a8 	mov	w8, #0xd                   	// #13
ffffff8000082890:	b81ec268 	stur	w8, [x19, #-20]
ffffff8000082894:	b9400268 	ldr	w8, [x19]
ffffff8000082898:	37280088 	tbnz	w8, #5, ffffff80000828a8 <_rust_main+0x1e8>
ffffff800008289c:	d503201f 	nop
ffffff80000828a0:	b9400268 	ldr	w8, [x19]
ffffff80000828a4:	362fffc8 	tbz	w8, #5, ffffff800008289c <_rust_main+0x1dc>
ffffff80000828a8:	52800148 	mov	w8, #0xa                   	// #10
ffffff80000828ac:	910023e9 	add	x9, sp, #0x8
ffffff80000828b0:	b0000014 	adrp	x20, ffffff8000083000 <handle_exception_el1+0x5a4>
ffffff80000828b4:	9133c294 	add	x20, x20, #0xcf0
ffffff80000828b8:	90000021 	adrp	x1, ffffff8000086000 <TCR_EL1_VALUE+0x968>
ffffff80000828bc:	913ee021 	add	x1, x1, #0xfb8
ffffff80000828c0:	b0000022 	adrp	x2, ffffff8000087000 <TCR_EL1_VALUE+0x1968>
ffffff80000828c4:	91078042 	add	x2, x2, #0x1e0
ffffff80000828c8:	9100ffe0 	add	x0, sp, #0x3f
ffffff80000828cc:	910083e3 	add	x3, sp, #0x20
ffffff80000828d0:	b81ec268 	stur	w8, [x19, #-20]
ffffff80000828d4:	a90253e9 	stp	x9, x20, [sp, #32]
ffffff80000828d8:	94000524 	bl	ffffff8000083d68 <_ZN4core3fmt5write17h4e09d17c17eebf64E>
ffffff80000828dc:	370008a0 	tbnz	w0, #0, ffffff80000829f0 <_rust_main+0x330>
ffffff80000828e0:	b9400268 	ldr	w8, [x19]
ffffff80000828e4:	37280088 	tbnz	w8, #5, ffffff80000828f4 <_rust_main+0x234>
ffffff80000828e8:	d503201f 	nop
ffffff80000828ec:	b9400268 	ldr	w8, [x19]
ffffff80000828f0:	362fffc8 	tbz	w8, #5, ffffff80000828e8 <_rust_main+0x228>
ffffff80000828f4:	528001a8 	mov	w8, #0xd                   	// #13
ffffff80000828f8:	b81ec268 	stur	w8, [x19, #-20]
ffffff80000828fc:	b9400268 	ldr	w8, [x19]
ffffff8000082900:	37280088 	tbnz	w8, #5, ffffff8000082910 <_rust_main+0x250>
ffffff8000082904:	d503201f 	nop
ffffff8000082908:	b9400268 	ldr	w8, [x19]
ffffff800008290c:	362fffc8 	tbz	w8, #5, ffffff8000082904 <_rust_main+0x244>
ffffff8000082910:	52800148 	mov	w8, #0xa                   	// #10
ffffff8000082914:	910063e9 	add	x9, sp, #0x18
ffffff8000082918:	90000021 	adrp	x1, ffffff8000086000 <TCR_EL1_VALUE+0x968>
ffffff800008291c:	913ee021 	add	x1, x1, #0xfb8
ffffff8000082920:	b81ec268 	stur	w8, [x19, #-20]
ffffff8000082924:	90000022 	adrp	x2, ffffff8000086000 <TCR_EL1_VALUE+0x968>
ffffff8000082928:	91031c42 	add	x2, x2, #0xc7
ffffff800008292c:	f94007e8 	ldr	x8, [sp, #8]
ffffff8000082930:	9100ffe0 	add	x0, sp, #0x3f
ffffff8000082934:	910083e3 	add	x3, sp, #0x20
ffffff8000082938:	d34afd08 	lsr	x8, x8, #10
ffffff800008293c:	a901a7e8 	stp	x8, x9, [sp, #24]
ffffff8000082940:	b0000008 	adrp	x8, ffffff8000083000 <handle_exception_el1+0x5a4>
ffffff8000082944:	91306108 	add	x8, x8, #0xc18
ffffff8000082948:	f90017e8 	str	x8, [sp, #40]
ffffff800008294c:	94000507 	bl	ffffff8000083d68 <_ZN4core3fmt5write17h4e09d17c17eebf64E>
ffffff8000082950:	37000620 	tbnz	w0, #0, ffffff8000082a14 <_rust_main+0x354>
ffffff8000082954:	b9400268 	ldr	w8, [x19]
ffffff8000082958:	37280088 	tbnz	w8, #5, ffffff8000082968 <_rust_main+0x2a8>
ffffff800008295c:	d503201f 	nop
ffffff8000082960:	b9400268 	ldr	w8, [x19]
ffffff8000082964:	362fffc8 	tbz	w8, #5, ffffff800008295c <_rust_main+0x29c>
ffffff8000082968:	528001a8 	mov	w8, #0xd                   	// #13
ffffff800008296c:	b81ec268 	stur	w8, [x19, #-20]
ffffff8000082970:	b9400268 	ldr	w8, [x19]
ffffff8000082974:	37280088 	tbnz	w8, #5, ffffff8000082984 <_rust_main+0x2c4>
ffffff8000082978:	d503201f 	nop
ffffff800008297c:	b9400268 	ldr	w8, [x19]
ffffff8000082980:	362fffc8 	tbz	w8, #5, ffffff8000082978 <_rust_main+0x2b8>
ffffff8000082984:	52800148 	mov	w8, #0xa                   	// #10
ffffff8000082988:	910043e9 	add	x9, sp, #0x10
ffffff800008298c:	90000021 	adrp	x1, ffffff8000086000 <TCR_EL1_VALUE+0x968>
ffffff8000082990:	913ee021 	add	x1, x1, #0xfb8
ffffff8000082994:	b0000022 	adrp	x2, ffffff8000087000 <TCR_EL1_VALUE+0x1968>
ffffff8000082998:	9107dc42 	add	x2, x2, #0x1f7
ffffff800008299c:	9100ffe0 	add	x0, sp, #0x3f
ffffff80000829a0:	910083e3 	add	x3, sp, #0x20
ffffff80000829a4:	b81ec268 	stur	w8, [x19, #-20]
ffffff80000829a8:	a90253e9 	stp	x9, x20, [sp, #32]
ffffff80000829ac:	940004ef 	bl	ffffff8000083d68 <_ZN4core3fmt5write17h4e09d17c17eebf64E>
ffffff80000829b0:	37000440 	tbnz	w0, #0, ffffff8000082a38 <_rust_main+0x378>
ffffff80000829b4:	b9400268 	ldr	w8, [x19]
ffffff80000829b8:	37280088 	tbnz	w8, #5, ffffff80000829c8 <_rust_main+0x308>
ffffff80000829bc:	d503201f 	nop
ffffff80000829c0:	b9400268 	ldr	w8, [x19]
ffffff80000829c4:	362fffc8 	tbz	w8, #5, ffffff80000829bc <_rust_main+0x2fc>
ffffff80000829c8:	528001a8 	mov	w8, #0xd                   	// #13
ffffff80000829cc:	b81ec268 	stur	w8, [x19, #-20]
ffffff80000829d0:	b9400268 	ldr	w8, [x19]
ffffff80000829d4:	37280088 	tbnz	w8, #5, ffffff80000829e4 <_rust_main+0x324>
ffffff80000829d8:	d503201f 	nop
ffffff80000829dc:	b9400268 	ldr	w8, [x19]
ffffff80000829e0:	362fffc8 	tbz	w8, #5, ffffff80000829d8 <_rust_main+0x318>
ffffff80000829e4:	52800148 	mov	w8, #0xa                   	// #10
ffffff80000829e8:	b81ec268 	stur	w8, [x19, #-20]
ffffff80000829ec:	14000000 	b	ffffff80000829ec <_rust_main+0x32c>
ffffff80000829f0:	90000020 	adrp	x0, ffffff8000086000 <TCR_EL1_VALUE+0x968>
ffffff80000829f4:	91362000 	add	x0, x0, #0xd88
ffffff80000829f8:	90000023 	adrp	x3, ffffff8000086000 <TCR_EL1_VALUE+0x968>
ffffff80000829fc:	9135a063 	add	x3, x3, #0xd68
ffffff8000082a00:	b0000024 	adrp	x4, ffffff8000087000 <TCR_EL1_VALUE+0x1968>
ffffff8000082a04:	91090084 	add	x4, x4, #0x240
ffffff8000082a08:	9100ffe2 	add	x2, sp, #0x3f
ffffff8000082a0c:	52800561 	mov	w1, #0x2b                  	// #43
ffffff8000082a10:	94000a2a 	bl	ffffff80000852b8 <_ZN4core6result13unwrap_failed17h89589bbb6ce8ba23E>
ffffff8000082a14:	90000020 	adrp	x0, ffffff8000086000 <TCR_EL1_VALUE+0x968>
ffffff8000082a18:	91362000 	add	x0, x0, #0xd88
ffffff8000082a1c:	90000023 	adrp	x3, ffffff8000086000 <TCR_EL1_VALUE+0x968>
ffffff8000082a20:	9135a063 	add	x3, x3, #0xd68
ffffff8000082a24:	b0000024 	adrp	x4, ffffff8000087000 <TCR_EL1_VALUE+0x1968>
ffffff8000082a28:	9108a084 	add	x4, x4, #0x228
ffffff8000082a2c:	9100ffe2 	add	x2, sp, #0x3f
ffffff8000082a30:	52800561 	mov	w1, #0x2b                  	// #43
ffffff8000082a34:	94000a21 	bl	ffffff80000852b8 <_ZN4core6result13unwrap_failed17h89589bbb6ce8ba23E>
ffffff8000082a38:	90000020 	adrp	x0, ffffff8000086000 <TCR_EL1_VALUE+0x968>
ffffff8000082a3c:	91362000 	add	x0, x0, #0xd88
ffffff8000082a40:	90000023 	adrp	x3, ffffff8000086000 <TCR_EL1_VALUE+0x968>
ffffff8000082a44:	9135a063 	add	x3, x3, #0xd68
ffffff8000082a48:	b0000024 	adrp	x4, ffffff8000087000 <TCR_EL1_VALUE+0x1968>
ffffff8000082a4c:	91084084 	add	x4, x4, #0x210
ffffff8000082a50:	9100ffe2 	add	x2, sp, #0x3f
ffffff8000082a54:	52800561 	mov	w1, #0x2b                  	// #43
ffffff8000082a58:	94000a18 	bl	ffffff80000852b8 <_ZN4core6result13unwrap_failed17h89589bbb6ce8ba23E>

ffffff8000082a5c <handle_exception_el1>:
ffffff8000082a5c:	d10383ff 	sub	sp, sp, #0xe0
ffffff8000082a60:	f9005bfe 	str	x30, [sp, #176]
ffffff8000082a64:	a90c57f6 	stp	x22, x21, [sp, #192]
ffffff8000082a68:	a90d4ff4 	stp	x20, x19, [sp, #208]
ffffff8000082a6c:	39400415 	ldrb	w21, [x0, #1]
ffffff8000082a70:	aa0003f3 	mov	x19, x0
ffffff8000082a74:	71000abf 	cmp	w21, #0x2
ffffff8000082a78:	54000343 	b.cc	ffffff8000082ae0 <handle_exception_el1+0x84>  // b.lo, b.ul, b.last
ffffff8000082a7c:	d5384116 	mrs	x22, sp_el0
ffffff8000082a80:	d0000048 	adrp	x8, ffffff800008c000 <_ZN5at_os6kernel9processes13PROCESS_TABLE17h4893a867bd960623E+0x4000>
ffffff8000082a84:	52802a09 	mov	w9, #0x150                 	// #336
ffffff8000082a88:	f940d108 	ldr	x8, [x8, #416]
ffffff8000082a8c:	d000002a 	adrp	x10, ffffff8000088000 <_ZN5at_os6kernel9processes13PROCESS_TABLE17h4893a867bd960623E>
ffffff8000082a90:	9100014a 	add	x10, x10, #0x0
ffffff8000082a94:	9b092914 	madd	x20, x8, x9, x10
ffffff8000082a98:	3940a288 	ldrb	w8, [x20, #40]
ffffff8000082a9c:	7100111f 	cmp	w8, #0x4
ffffff8000082aa0:	54005480 	b.eq	ffffff8000083530 <handle_exception_el1+0xad4>  // b.none
ffffff8000082aa4:	9100e280 	add	x0, x20, #0x38
ffffff8000082aa8:	91002261 	add	x1, x19, #0x8
ffffff8000082aac:	52801f02 	mov	w2, #0xf8                  	// #248
ffffff8000082ab0:	94000a73 	bl	ffffff800008547c <memcpy>
ffffff8000082ab4:	f9408668 	ldr	x8, [x19, #264]
ffffff8000082ab8:	f9009a96 	str	x22, [x20, #304]
ffffff8000082abc:	f90037e8 	str	x8, [sp, #104]
ffffff8000082ac0:	f9408268 	ldr	x8, [x19, #256]
ffffff8000082ac4:	f90033e8 	str	x8, [sp, #96]
ffffff8000082ac8:	3dc01be0 	ldr	q0, [sp, #96]
ffffff8000082acc:	3d801fe0 	str	q0, [sp, #112]
ffffff8000082ad0:	f9403fe8 	ldr	x8, [sp, #120]
ffffff8000082ad4:	f900a288 	str	x8, [x20, #320]
ffffff8000082ad8:	f9403be8 	ldr	x8, [sp, #112]
ffffff8000082adc:	f9009e88 	str	x8, [x20, #312]
ffffff8000082ae0:	39400268 	ldrb	w8, [x19]
ffffff8000082ae4:	34000508 	cbz	w8, ffffff8000082b84 <handle_exception_el1+0x128>
ffffff8000082ae8:	7100051f 	cmp	w8, #0x1
ffffff8000082aec:	54000ee1 	b.ne	ffffff8000082cc8 <handle_exception_el1+0x26c>  // b.any
ffffff8000082af0:	929ff3e8 	mov	x8, #0xffffffffffff0060    	// #-65440
ffffff8000082af4:	f2a80008 	movk	x8, #0x4000, lsl #16
ffffff8000082af8:	f2dff008 	movk	x8, #0xff80, lsl #32
ffffff8000082afc:	b9400114 	ldr	w20, [x8]
ffffff8000082b00:	b9008bf4 	str	w20, [sp, #136]
ffffff8000082b04:	36082dd4 	tbz	w20, #1, ffffff80000830bc <handle_exception_el1+0x660>
ffffff8000082b08:	d53be008 	mrs	x8, cntfrq_el0
ffffff8000082b0c:	d53be029 	mrs	x9, cntpct_el0
ffffff8000082b10:	ab080128 	adds	x8, x9, x8
ffffff8000082b14:	54005382 	b.cs	ffffff8000083584 <handle_exception_el1+0xb28>  // b.hs, b.nlast
ffffff8000082b18:	d51be248 	msr	cntp_cval_el0, x8
ffffff8000082b1c:	d5033fdf 	isb
ffffff8000082b20:	d53be228 	mrs	x8, cntp_ctl_el0
ffffff8000082b24:	d5033fdf 	isb
ffffff8000082b28:	71000abf 	cmp	w21, #0x2
ffffff8000082b2c:	927ff908 	and	x8, x8, #0xfffffffffffffffe
ffffff8000082b30:	d51be228 	msr	cntp_ctl_el0, x8
ffffff8000082b34:	d5033fdf 	isb
ffffff8000082b38:	54002162 	b.cs	ffffff8000082f64 <handle_exception_el1+0x508>  // b.hs, b.nlast
ffffff8000082b3c:	d29ef9e9 	mov	x9, #0xf7cf                	// #63439
ffffff8000082b40:	d53be008 	mrs	x8, cntfrq_el0
ffffff8000082b44:	f2bc6a69 	movk	x9, #0xe353, lsl #16
ffffff8000082b48:	d343fd08 	lsr	x8, x8, #3
ffffff8000082b4c:	f2d374a9 	movk	x9, #0x9ba5, lsl #32
ffffff8000082b50:	f2e41889 	movk	x9, #0x20c4, lsl #48
ffffff8000082b54:	9bc97d08 	umulh	x8, x8, x9
ffffff8000082b58:	d53be029 	mrs	x9, cntpct_el0
ffffff8000082b5c:	ab481128 	adds	x8, x9, x8, lsr #4
ffffff8000082b60:	54005062 	b.cs	ffffff800008356c <handle_exception_el1+0xb10>  // b.hs, b.nlast
ffffff8000082b64:	d51be248 	msr	cntp_cval_el0, x8
ffffff8000082b68:	d5033fdf 	isb
ffffff8000082b6c:	d53be228 	mrs	x8, cntp_ctl_el0
ffffff8000082b70:	d5033fdf 	isb
ffffff8000082b74:	b2400108 	orr	x8, x8, #0x1
ffffff8000082b78:	d51be228 	msr	cntp_ctl_el0, x8
ffffff8000082b7c:	d5033fdf 	isb
ffffff8000082b80:	1400014d 	b	ffffff80000830b4 <handle_exception_el1+0x658>
ffffff8000082b84:	f9408a68 	ldr	x8, [x19, #272]
ffffff8000082b88:	710006bf 	cmp	w21, #0x1
ffffff8000082b8c:	531a7d09 	lsr	w9, w8, #26
ffffff8000082b90:	54000f20 	b.eq	ffffff8000082d74 <handle_exception_el1+0x318>  // b.none
ffffff8000082b94:	71000abf 	cmp	w21, #0x2
ffffff8000082b98:	540019e1 	b.ne	ffffff8000082ed4 <handle_exception_el1+0x478>  // b.any
ffffff8000082b9c:	f1001d3f 	cmp	x9, #0x7
ffffff8000082ba0:	54003620 	b.eq	ffffff8000083264 <handle_exception_el1+0x808>  // b.none
ffffff8000082ba4:	f100553f 	cmp	x9, #0x15
ffffff8000082ba8:	54003b21 	b.ne	ffffff800008330c <handle_exception_el1+0x8b0>  // b.any
ffffff8000082bac:	12003d09 	and	w9, w8, #0xffff
ffffff8000082bb0:	79017be8 	strh	w8, [sp, #188]
ffffff8000082bb4:	7100053f 	cmp	w9, #0x1
ffffff8000082bb8:	54004560 	b.eq	ffffff8000083464 <handle_exception_el1+0xa08>  // b.none
ffffff8000082bbc:	7100093f 	cmp	w9, #0x2
ffffff8000082bc0:	54003ee0 	b.eq	ffffff800008339c <handle_exception_el1+0x940>  // b.none
ffffff8000082bc4:	71000d3f 	cmp	w9, #0x3
ffffff8000082bc8:	540048a1 	b.ne	ffffff80000834dc <handle_exception_el1+0xa80>  // b.any
ffffff8000082bcc:	d0000048 	adrp	x8, ffffff800008c000 <_ZN5at_os6kernel9processes13PROCESS_TABLE17h4893a867bd960623E+0x4000>
ffffff8000082bd0:	52802a0b 	mov	w11, #0x150                 	// #336
ffffff8000082bd4:	d000002a 	adrp	x10, ffffff8000088000 <_ZN5at_os6kernel9processes13PROCESS_TABLE17h4893a867bd960623E>
ffffff8000082bd8:	9100014a 	add	x10, x10, #0x0
ffffff8000082bdc:	f940d109 	ldr	x9, [x8, #416]
ffffff8000082be0:	9b0b292b 	madd	x11, x9, x11, x10
ffffff8000082be4:	38428d6c 	ldrb	w12, [x11, #40]!
ffffff8000082be8:	7100119f 	cmp	w12, #0x4
ffffff8000082bec:	54000060 	b.eq	ffffff8000082bf8 <handle_exception_el1+0x19c>  // b.none
ffffff8000082bf0:	5280006c 	mov	w12, #0x3                   	// #3
ffffff8000082bf4:	3900016c 	strb	w12, [x11]
ffffff8000082bf8:	52802a0b 	mov	w11, #0x150                 	// #336
ffffff8000082bfc:	d29ae16d 	mov	x13, #0xd70b                	// #55051
ffffff8000082c00:	5280064c 	mov	w12, #0x32                  	// #50
ffffff8000082c04:	9b0b292a 	madd	x10, x9, x11, x10
ffffff8000082c08:	f2ae146d 	movk	x13, #0x70a3, lsl #16
ffffff8000082c0c:	9100052b 	add	x11, x9, #0x1
ffffff8000082c10:	f2c147ad 	movk	x13, #0xa3d, lsl #32
ffffff8000082c14:	928833ee 	mov	x14, #0xffffffffffffbe60    	// #-16800
ffffff8000082c18:	f2f47aed 	movk	x13, #0xa3d7, lsl #48
ffffff8000082c1c:	b4004d8c 	cbz	x12, ffffff80000835cc <handle_exception_el1+0xb70>
ffffff8000082c20:	d341fd6f 	lsr	x15, x11, #1
ffffff8000082c24:	91000529 	add	x9, x9, #0x1
ffffff8000082c28:	9100056b 	add	x11, x11, #0x1
ffffff8000082c2c:	d100058c 	sub	x12, x12, #0x1
ffffff8000082c30:	9bcd7def 	umulh	x15, x15, x13
ffffff8000082c34:	d344fdef 	lsr	x15, x15, #4
ffffff8000082c38:	9b0e7def 	mul	x15, x15, x14
ffffff8000082c3c:	8b0f014f 	add	x15, x10, x15
ffffff8000082c40:	9105414a 	add	x10, x10, #0x150
ffffff8000082c44:	3945e1ef 	ldrb	w15, [x15, #376]
ffffff8000082c48:	35fffeaf 	cbnz	w15, ffffff8000082c1c <handle_exception_el1+0x1c0>
ffffff8000082c4c:	d341fd2b 	lsr	x11, x9, #1
ffffff8000082c50:	5280064c 	mov	w12, #0x32                  	// #50
ffffff8000082c54:	91002260 	add	x0, x19, #0x8
ffffff8000082c58:	52801f02 	mov	w2, #0xf8                  	// #248
ffffff8000082c5c:	9bcd7d6b 	umulh	x11, x11, x13
ffffff8000082c60:	d344fd6b 	lsr	x11, x11, #4
ffffff8000082c64:	9b0ca569 	msub	x9, x11, x12, x9
ffffff8000082c68:	5288340c 	mov	w12, #0x41a0                	// #16800
ffffff8000082c6c:	9b0ca974 	msub	x20, x11, x12, x10
ffffff8000082c70:	5280002a 	mov	w10, #0x1                   	// #1
ffffff8000082c74:	f900d109 	str	x9, [x8, #416]
ffffff8000082c78:	9100e281 	add	x1, x20, #0x38
ffffff8000082c7c:	3900a28a 	strb	w10, [x20, #40]
ffffff8000082c80:	940009ff 	bl	ffffff800008547c <memcpy>
ffffff8000082c84:	f940a288 	ldr	x8, [x20, #320]
ffffff8000082c88:	f90017e8 	str	x8, [sp, #40]
ffffff8000082c8c:	f9409e88 	ldr	x8, [x20, #312]
ffffff8000082c90:	f90013e8 	str	x8, [sp, #32]
ffffff8000082c94:	3dc00be0 	ldr	q0, [sp, #32]
ffffff8000082c98:	3d800fe0 	str	q0, [sp, #48]
ffffff8000082c9c:	f9401fe8 	ldr	x8, [sp, #56]
ffffff8000082ca0:	f9409a89 	ldr	x9, [x20, #304]
ffffff8000082ca4:	f9008668 	str	x8, [x19, #264]
ffffff8000082ca8:	f9401be8 	ldr	x8, [sp, #48]
ffffff8000082cac:	f9008268 	str	x8, [x19, #256]
ffffff8000082cb0:	d5184109 	msr	sp_el0, x9
ffffff8000082cb4:	a94d4ff4 	ldp	x20, x19, [sp, #208]
ffffff8000082cb8:	f9405bfe 	ldr	x30, [sp, #176]
ffffff8000082cbc:	a94c57f6 	ldp	x22, x21, [sp, #192]
ffffff8000082cc0:	910383ff 	add	sp, sp, #0xe0
ffffff8000082cc4:	d65f03c0 	ret
ffffff8000082cc8:	9295f568 	mov	x8, #0xffffffffffff5054    	// #-44972
ffffff8000082ccc:	aa1f03e9 	mov	x9, xzr
ffffff8000082cd0:	9000002a 	adrp	x10, ffffff8000086000 <TCR_EL1_VALUE+0x968>
ffffff8000082cd4:	9138054a 	add	x10, x10, #0xe01
ffffff8000082cd8:	f2a7e428 	movk	x8, #0x3f21, lsl #16
ffffff8000082cdc:	528001ab 	mov	w11, #0xd                   	// #13
ffffff8000082ce0:	f2dff008 	movk	x8, #0xff80, lsl #32
ffffff8000082ce4:	3869694c 	ldrb	w12, [x10, x9]
ffffff8000082ce8:	7100299f 	cmp	w12, #0xa
ffffff8000082cec:	54000121 	b.ne	ffffff8000082d10 <handle_exception_el1+0x2b4>  // b.any
ffffff8000082cf0:	b940010d 	ldr	w13, [x8]
ffffff8000082cf4:	3728008d 	tbnz	w13, #5, ffffff8000082d04 <handle_exception_el1+0x2a8>
ffffff8000082cf8:	d503201f 	nop
ffffff8000082cfc:	b940010d 	ldr	w13, [x8]
ffffff8000082d00:	362fffcd 	tbz	w13, #5, ffffff8000082cf8 <handle_exception_el1+0x29c>
ffffff8000082d04:	b81ec10b 	stur	w11, [x8, #-20]
ffffff8000082d08:	14000002 	b	ffffff8000082d10 <handle_exception_el1+0x2b4>
ffffff8000082d0c:	d503201f 	nop
ffffff8000082d10:	b940010d 	ldr	w13, [x8]
ffffff8000082d14:	362fffcd 	tbz	w13, #5, ffffff8000082d0c <handle_exception_el1+0x2b0>
ffffff8000082d18:	91000529 	add	x9, x9, #0x1
ffffff8000082d1c:	b81ec10c 	stur	w12, [x8, #-20]
ffffff8000082d20:	f100753f 	cmp	x9, #0x1d
ffffff8000082d24:	54fffe01 	b.ne	ffffff8000082ce4 <handle_exception_el1+0x288>  // b.any
ffffff8000082d28:	14000002 	b	ffffff8000082d30 <handle_exception_el1+0x2d4>
ffffff8000082d2c:	d503201f 	nop
ffffff8000082d30:	b9400109 	ldr	w9, [x8]
ffffff8000082d34:	362fffc9 	tbz	w9, #5, ffffff8000082d2c <handle_exception_el1+0x2d0>
ffffff8000082d38:	528001a9 	mov	w9, #0xd                   	// #13
ffffff8000082d3c:	b81ec109 	stur	w9, [x8, #-20]
ffffff8000082d40:	b9400109 	ldr	w9, [x8]
ffffff8000082d44:	37280089 	tbnz	w9, #5, ffffff8000082d54 <handle_exception_el1+0x2f8>
ffffff8000082d48:	d503201f 	nop
ffffff8000082d4c:	b9400109 	ldr	w9, [x8]
ffffff8000082d50:	362fffc9 	tbz	w9, #5, ffffff8000082d48 <handle_exception_el1+0x2ec>
ffffff8000082d54:	52800149 	mov	w9, #0xa                   	// #10
ffffff8000082d58:	aa1303e0 	mov	x0, x19
ffffff8000082d5c:	b81ec109 	stur	w9, [x8, #-20]
ffffff8000082d60:	a94d4ff4 	ldp	x20, x19, [sp, #208]
ffffff8000082d64:	f9405bfe 	ldr	x30, [sp, #176]
ffffff8000082d68:	a94c57f6 	ldp	x22, x21, [sp, #192]
ffffff8000082d6c:	910383ff 	add	sp, sp, #0xe0
ffffff8000082d70:	17fffc6b 	b	ffffff8000081f1c <_ZN5at_os6kernel10exceptions23print_exception_context17h67ed1ce79c9c1ffbE>
ffffff8000082d74:	f2403d1f 	tst	x8, #0xffff
ffffff8000082d78:	540022e1 	b.ne	ffffff80000831d4 <handle_exception_el1+0x778>  // b.any
ffffff8000082d7c:	f100553f 	cmp	x9, #0x15
ffffff8000082d80:	540022a1 	b.ne	ffffff80000831d4 <handle_exception_el1+0x778>  // b.any
ffffff8000082d84:	d29ef9e9 	mov	x9, #0xf7cf                	// #63439
ffffff8000082d88:	d53be008 	mrs	x8, cntfrq_el0
ffffff8000082d8c:	f2bc6a69 	movk	x9, #0xe353, lsl #16
ffffff8000082d90:	d343fd08 	lsr	x8, x8, #3
ffffff8000082d94:	f2d374a9 	movk	x9, #0x9ba5, lsl #32
ffffff8000082d98:	f2e41889 	movk	x9, #0x20c4, lsl #48
ffffff8000082d9c:	9bc97d08 	umulh	x8, x8, x9
ffffff8000082da0:	d53be029 	mrs	x9, cntpct_el0
ffffff8000082da4:	ab481128 	adds	x8, x9, x8, lsr #4
ffffff8000082da8:	54003e22 	b.cs	ffffff800008356c <handle_exception_el1+0xb10>  // b.hs, b.nlast
ffffff8000082dac:	d51be248 	msr	cntp_cval_el0, x8
ffffff8000082db0:	d5033fdf 	isb
ffffff8000082db4:	d53be228 	mrs	x8, cntp_ctl_el0
ffffff8000082db8:	d5033fdf 	isb
ffffff8000082dbc:	b2400108 	orr	x8, x8, #0x1
ffffff8000082dc0:	d51be228 	msr	cntp_ctl_el0, x8
ffffff8000082dc4:	d5033fdf 	isb
ffffff8000082dc8:	d0000048 	adrp	x8, ffffff800008c000 <_ZN5at_os6kernel9processes13PROCESS_TABLE17h4893a867bd960623E+0x4000>
ffffff8000082dcc:	f940d100 	ldr	x0, [x8, #416]
ffffff8000082dd0:	f100c41f 	cmp	x0, #0x31
ffffff8000082dd4:	54003fe8 	b.hi	ffffff80000835d0 <handle_exception_el1+0xb74>  // b.pmore
ffffff8000082dd8:	52802a0a 	mov	w10, #0x150                 	// #336
ffffff8000082ddc:	d0000029 	adrp	x9, ffffff8000088000 <_ZN5at_os6kernel9processes13PROCESS_TABLE17h4893a867bd960623E>
ffffff8000082de0:	91000129 	add	x9, x9, #0x0
ffffff8000082de4:	9b0a240a 	madd	x10, x0, x10, x9
ffffff8000082de8:	3940a14a 	ldrb	w10, [x10, #40]
ffffff8000082dec:	7100055f 	cmp	w10, #0x1
ffffff8000082df0:	54000380 	b.eq	ffffff8000082e60 <handle_exception_el1+0x404>  // b.none
ffffff8000082df4:	52802a0a 	mov	w10, #0x150                 	// #336
ffffff8000082df8:	d29ae16d 	mov	x13, #0xd70b                	// #55051
ffffff8000082dfc:	5280064c 	mov	w12, #0x32                  	// #50
ffffff8000082e00:	9b0a240b 	madd	x11, x0, x10, x9
ffffff8000082e04:	f2ae146d 	movk	x13, #0x70a3, lsl #16
ffffff8000082e08:	9100040a 	add	x10, x0, #0x1
ffffff8000082e0c:	f2c147ad 	movk	x13, #0xa3d, lsl #32
ffffff8000082e10:	928833ee 	mov	x14, #0xffffffffffffbe60    	// #-16800
ffffff8000082e14:	f2f47aed 	movk	x13, #0xa3d7, lsl #48
ffffff8000082e18:	9105e16b 	add	x11, x11, #0x178
ffffff8000082e1c:	b4003d8c 	cbz	x12, ffffff80000835cc <handle_exception_el1+0xb70>
ffffff8000082e20:	d341fd4f 	lsr	x15, x10, #1
ffffff8000082e24:	91000400 	add	x0, x0, #0x1
ffffff8000082e28:	9100054a 	add	x10, x10, #0x1
ffffff8000082e2c:	d100058c 	sub	x12, x12, #0x1
ffffff8000082e30:	9bcd7def 	umulh	x15, x15, x13
ffffff8000082e34:	d344fdef 	lsr	x15, x15, #4
ffffff8000082e38:	9b0e7def 	mul	x15, x15, x14
ffffff8000082e3c:	386f696f 	ldrb	w15, [x11, x15]
ffffff8000082e40:	9105416b 	add	x11, x11, #0x150
ffffff8000082e44:	35fffecf 	cbnz	w15, ffffff8000082e1c <handle_exception_el1+0x3c0>
ffffff8000082e48:	d341fc0a 	lsr	x10, x0, #1
ffffff8000082e4c:	5280064b 	mov	w11, #0x32                  	// #50
ffffff8000082e50:	9bcd7d4a 	umulh	x10, x10, x13
ffffff8000082e54:	d344fd4a 	lsr	x10, x10, #4
ffffff8000082e58:	9b0b8140 	msub	x0, x10, x11, x0
ffffff8000082e5c:	f900d100 	str	x0, [x8, #416]
ffffff8000082e60:	52802a0a 	mov	w10, #0x150                 	// #336
ffffff8000082e64:	9b0a2414 	madd	x20, x0, x10, x9
ffffff8000082e68:	3940a289 	ldrb	w9, [x20, #40]
ffffff8000082e6c:	7100113f 	cmp	w9, #0x4
ffffff8000082e70:	54003960 	b.eq	ffffff800008359c <handle_exception_el1+0xb40>  // b.none
ffffff8000082e74:	f900d100 	str	x0, [x8, #416]
ffffff8000082e78:	52800028 	mov	w8, #0x1                   	// #1
ffffff8000082e7c:	91002260 	add	x0, x19, #0x8
ffffff8000082e80:	9100e281 	add	x1, x20, #0x38
ffffff8000082e84:	52801f02 	mov	w2, #0xf8                  	// #248
ffffff8000082e88:	3900a288 	strb	w8, [x20, #40]
ffffff8000082e8c:	9400097c 	bl	ffffff800008547c <memcpy>
ffffff8000082e90:	f940a288 	ldr	x8, [x20, #320]
ffffff8000082e94:	f90007e8 	str	x8, [sp, #8]
ffffff8000082e98:	f9409e88 	ldr	x8, [x20, #312]
ffffff8000082e9c:	f90003e8 	str	x8, [sp]
ffffff8000082ea0:	3dc003e0 	ldr	q0, [sp]
ffffff8000082ea4:	3d8007e0 	str	q0, [sp, #16]
ffffff8000082ea8:	f9400fe8 	ldr	x8, [sp, #24]
ffffff8000082eac:	f9409a89 	ldr	x9, [x20, #304]
ffffff8000082eb0:	f9008668 	str	x8, [x19, #264]
ffffff8000082eb4:	f9400be8 	ldr	x8, [sp, #16]
ffffff8000082eb8:	f9008268 	str	x8, [x19, #256]
ffffff8000082ebc:	d5184109 	msr	sp_el0, x9
ffffff8000082ec0:	a94d4ff4 	ldp	x20, x19, [sp, #208]
ffffff8000082ec4:	f9405bfe 	ldr	x30, [sp, #176]
ffffff8000082ec8:	a94c57f6 	ldp	x22, x21, [sp, #192]
ffffff8000082ecc:	910383ff 	add	sp, sp, #0xe0
ffffff8000082ed0:	d65f03c0 	ret
ffffff8000082ed4:	9295f568 	mov	x8, #0xffffffffffff5054    	// #-44972
ffffff8000082ed8:	aa1f03e9 	mov	x9, xzr
ffffff8000082edc:	9000002a 	adrp	x10, ffffff8000086000 <TCR_EL1_VALUE+0x968>
ffffff8000082ee0:	9138054a 	add	x10, x10, #0xe01
ffffff8000082ee4:	f2a7e428 	movk	x8, #0x3f21, lsl #16
ffffff8000082ee8:	528001ab 	mov	w11, #0xd                   	// #13
ffffff8000082eec:	f2dff008 	movk	x8, #0xff80, lsl #32
ffffff8000082ef0:	3869694c 	ldrb	w12, [x10, x9]
ffffff8000082ef4:	7100299f 	cmp	w12, #0xa
ffffff8000082ef8:	54000121 	b.ne	ffffff8000082f1c <handle_exception_el1+0x4c0>  // b.any
ffffff8000082efc:	b940010d 	ldr	w13, [x8]
ffffff8000082f00:	3728008d 	tbnz	w13, #5, ffffff8000082f10 <handle_exception_el1+0x4b4>
ffffff8000082f04:	d503201f 	nop
ffffff8000082f08:	b940010d 	ldr	w13, [x8]
ffffff8000082f0c:	362fffcd 	tbz	w13, #5, ffffff8000082f04 <handle_exception_el1+0x4a8>
ffffff8000082f10:	b81ec10b 	stur	w11, [x8, #-20]
ffffff8000082f14:	14000002 	b	ffffff8000082f1c <handle_exception_el1+0x4c0>
ffffff8000082f18:	d503201f 	nop
ffffff8000082f1c:	b940010d 	ldr	w13, [x8]
ffffff8000082f20:	362fffcd 	tbz	w13, #5, ffffff8000082f18 <handle_exception_el1+0x4bc>
ffffff8000082f24:	91000529 	add	x9, x9, #0x1
ffffff8000082f28:	b81ec10c 	stur	w12, [x8, #-20]
ffffff8000082f2c:	f100753f 	cmp	x9, #0x1d
ffffff8000082f30:	54fffe01 	b.ne	ffffff8000082ef0 <handle_exception_el1+0x494>  // b.any
ffffff8000082f34:	14000002 	b	ffffff8000082f3c <handle_exception_el1+0x4e0>
ffffff8000082f38:	d503201f 	nop
ffffff8000082f3c:	b9400109 	ldr	w9, [x8]
ffffff8000082f40:	362fffc9 	tbz	w9, #5, ffffff8000082f38 <handle_exception_el1+0x4dc>
ffffff8000082f44:	528001a9 	mov	w9, #0xd                   	// #13
ffffff8000082f48:	b81ec109 	stur	w9, [x8, #-20]
ffffff8000082f4c:	b9400109 	ldr	w9, [x8]
ffffff8000082f50:	372ff029 	tbnz	w9, #5, ffffff8000082d54 <handle_exception_el1+0x2f8>
ffffff8000082f54:	d503201f 	nop
ffffff8000082f58:	b9400109 	ldr	w9, [x8]
ffffff8000082f5c:	362fffc9 	tbz	w9, #5, ffffff8000082f54 <handle_exception_el1+0x4f8>
ffffff8000082f60:	17ffff7d 	b	ffffff8000082d54 <handle_exception_el1+0x2f8>
ffffff8000082f64:	d0000048 	adrp	x8, ffffff800008c000 <_ZN5at_os6kernel9processes13PROCESS_TABLE17h4893a867bd960623E+0x4000>
ffffff8000082f68:	52802a0b 	mov	w11, #0x150                 	// #336
ffffff8000082f6c:	d0000029 	adrp	x9, ffffff8000088000 <_ZN5at_os6kernel9processes13PROCESS_TABLE17h4893a867bd960623E>
ffffff8000082f70:	91000129 	add	x9, x9, #0x0
ffffff8000082f74:	f940d10a 	ldr	x10, [x8, #416]
ffffff8000082f78:	9b0b254a 	madd	x10, x10, x11, x9
ffffff8000082f7c:	38428d4b 	ldrb	w11, [x10, #40]!
ffffff8000082f80:	7100117f 	cmp	w11, #0x4
ffffff8000082f84:	54003180 	b.eq	ffffff80000835b4 <handle_exception_el1+0xb58>  // b.none
ffffff8000082f88:	3900015f 	strb	wzr, [x10]
ffffff8000082f8c:	d29ef9eb 	mov	x11, #0xf7cf                	// #63439
ffffff8000082f90:	d53be00a 	mrs	x10, cntfrq_el0
ffffff8000082f94:	f2bc6a6b 	movk	x11, #0xe353, lsl #16
ffffff8000082f98:	d343fd4a 	lsr	x10, x10, #3
ffffff8000082f9c:	f2d374ab 	movk	x11, #0x9ba5, lsl #32
ffffff8000082fa0:	f2e4188b 	movk	x11, #0x20c4, lsl #48
ffffff8000082fa4:	9bcb7d4a 	umulh	x10, x10, x11
ffffff8000082fa8:	d53be02b 	mrs	x11, cntpct_el0
ffffff8000082fac:	ab4a116a 	adds	x10, x11, x10, lsr #4
ffffff8000082fb0:	54002de2 	b.cs	ffffff800008356c <handle_exception_el1+0xb10>  // b.hs, b.nlast
ffffff8000082fb4:	d51be24a 	msr	cntp_cval_el0, x10
ffffff8000082fb8:	d5033fdf 	isb
ffffff8000082fbc:	52802a0b 	mov	w11, #0x150                 	// #336
ffffff8000082fc0:	d53be22a 	mrs	x10, cntp_ctl_el0
ffffff8000082fc4:	d5033fdf 	isb
ffffff8000082fc8:	b240014a 	orr	x10, x10, #0x1
ffffff8000082fcc:	d51be22a 	msr	cntp_ctl_el0, x10
ffffff8000082fd0:	d5033fdf 	isb
ffffff8000082fd4:	f940d10a 	ldr	x10, [x8, #416]
ffffff8000082fd8:	9b0b254b 	madd	x11, x10, x11, x9
ffffff8000082fdc:	3940a16b 	ldrb	w11, [x11, #40]
ffffff8000082fe0:	7100057f 	cmp	w11, #0x1
ffffff8000082fe4:	54000380 	b.eq	ffffff8000083054 <handle_exception_el1+0x5f8>  // b.none
ffffff8000082fe8:	52802a0b 	mov	w11, #0x150                 	// #336
ffffff8000082fec:	d29ae16e 	mov	x14, #0xd70b                	// #55051
ffffff8000082ff0:	5280064d 	mov	w13, #0x32                  	// #50
ffffff8000082ff4:	9b0b254c 	madd	x12, x10, x11, x9
ffffff8000082ff8:	f2ae146e 	movk	x14, #0x70a3, lsl #16
ffffff8000082ffc:	9100054b 	add	x11, x10, #0x1
ffffff8000083000:	f2c147ae 	movk	x14, #0xa3d, lsl #32
ffffff8000083004:	928833ef 	mov	x15, #0xffffffffffffbe60    	// #-16800
ffffff8000083008:	f2f47aee 	movk	x14, #0xa3d7, lsl #48
ffffff800008300c:	9105e18c 	add	x12, x12, #0x178
ffffff8000083010:	b4002ded 	cbz	x13, ffffff80000835cc <handle_exception_el1+0xb70>
ffffff8000083014:	d341fd70 	lsr	x16, x11, #1
ffffff8000083018:	9100054a 	add	x10, x10, #0x1
ffffff800008301c:	9100056b 	add	x11, x11, #0x1
ffffff8000083020:	d10005ad 	sub	x13, x13, #0x1
ffffff8000083024:	9bce7e10 	umulh	x16, x16, x14
ffffff8000083028:	d344fe10 	lsr	x16, x16, #4
ffffff800008302c:	9b0f7e10 	mul	x16, x16, x15
ffffff8000083030:	38706990 	ldrb	w16, [x12, x16]
ffffff8000083034:	9105418c 	add	x12, x12, #0x150
ffffff8000083038:	35fffed0 	cbnz	w16, ffffff8000083010 <handle_exception_el1+0x5b4>
ffffff800008303c:	d341fd4b 	lsr	x11, x10, #1
ffffff8000083040:	5280064c 	mov	w12, #0x32                  	// #50
ffffff8000083044:	9bce7d6b 	umulh	x11, x11, x14
ffffff8000083048:	d344fd6b 	lsr	x11, x11, #4
ffffff800008304c:	9b0ca96a 	msub	x10, x11, x12, x10
ffffff8000083050:	f900d10a 	str	x10, [x8, #416]
ffffff8000083054:	52802a0b 	mov	w11, #0x150                 	// #336
ffffff8000083058:	9b0b2555 	madd	x21, x10, x11, x9
ffffff800008305c:	3940a2a9 	ldrb	w9, [x21, #40]
ffffff8000083060:	7100113f 	cmp	w9, #0x4
ffffff8000083064:	540029c0 	b.eq	ffffff800008359c <handle_exception_el1+0xb40>  // b.none
ffffff8000083068:	f900d10a 	str	x10, [x8, #416]
ffffff800008306c:	52800028 	mov	w8, #0x1                   	// #1
ffffff8000083070:	91002260 	add	x0, x19, #0x8
ffffff8000083074:	9100e2a1 	add	x1, x21, #0x38
ffffff8000083078:	52801f02 	mov	w2, #0xf8                  	// #248
ffffff800008307c:	3900a2a8 	strb	w8, [x21, #40]
ffffff8000083080:	940008ff 	bl	ffffff800008547c <memcpy>
ffffff8000083084:	f940a2a8 	ldr	x8, [x21, #320]
ffffff8000083088:	f90027e8 	str	x8, [sp, #72]
ffffff800008308c:	f9409ea8 	ldr	x8, [x21, #312]
ffffff8000083090:	f90023e8 	str	x8, [sp, #64]
ffffff8000083094:	3dc013e0 	ldr	q0, [sp, #64]
ffffff8000083098:	3d8017e0 	str	q0, [sp, #80]
ffffff800008309c:	f9402fe8 	ldr	x8, [sp, #88]
ffffff80000830a0:	f9409aa9 	ldr	x9, [x21, #304]
ffffff80000830a4:	f9008668 	str	x8, [x19, #264]
ffffff80000830a8:	f9402be8 	ldr	x8, [sp, #80]
ffffff80000830ac:	f9008268 	str	x8, [x19, #256]
ffffff80000830b0:	d5184109 	msr	sp_el0, x9
ffffff80000830b4:	121e7a94 	and	w20, w20, #0xfffffffd
ffffff80000830b8:	b9008bf4 	str	w20, [sp, #136]
ffffff80000830bc:	34fff034 	cbz	w20, ffffff8000082ec0 <handle_exception_el1+0x464>
ffffff80000830c0:	910223e8 	add	x8, sp, #0x88
ffffff80000830c4:	90000009 	adrp	x9, ffffff8000083000 <handle_exception_el1+0x5a4>
ffffff80000830c8:	9131e129 	add	x9, x9, #0xc78
ffffff80000830cc:	f0000001 	adrp	x1, ffffff8000086000 <TCR_EL1_VALUE+0x968>
ffffff80000830d0:	913ee021 	add	x1, x1, #0xfb8
ffffff80000830d4:	f0000002 	adrp	x2, ffffff8000086000 <TCR_EL1_VALUE+0x968>
ffffff80000830d8:	91375442 	add	x2, x2, #0xdd5
ffffff80000830dc:	9102ffe0 	add	x0, sp, #0xbf
ffffff80000830e0:	910263e3 	add	x3, sp, #0x98
ffffff80000830e4:	a909a7e8 	stp	x8, x9, [sp, #152]
ffffff80000830e8:	94000320 	bl	ffffff8000083d68 <_ZN4core3fmt5write17h4e09d17c17eebf64E>
ffffff80000830ec:	370022e0 	tbnz	w0, #0, ffffff8000083548 <handle_exception_el1+0xaec>
ffffff80000830f0:	9295f568 	mov	x8, #0xffffffffffff5054    	// #-44972
ffffff80000830f4:	f2a7e428 	movk	x8, #0x3f21, lsl #16
ffffff80000830f8:	f2dff008 	movk	x8, #0xff80, lsl #32
ffffff80000830fc:	b9400109 	ldr	w9, [x8]
ffffff8000083100:	37280089 	tbnz	w9, #5, ffffff8000083110 <handle_exception_el1+0x6b4>
ffffff8000083104:	d503201f 	nop
ffffff8000083108:	b9400109 	ldr	w9, [x8]
ffffff800008310c:	362fffc9 	tbz	w9, #5, ffffff8000083104 <handle_exception_el1+0x6a8>
ffffff8000083110:	528001a9 	mov	w9, #0xd                   	// #13
ffffff8000083114:	b81ec109 	stur	w9, [x8, #-20]
ffffff8000083118:	b940010a 	ldr	w10, [x8]
ffffff800008311c:	3728008a 	tbnz	w10, #5, ffffff800008312c <handle_exception_el1+0x6d0>
ffffff8000083120:	d503201f 	nop
ffffff8000083124:	b940010a 	ldr	w10, [x8]
ffffff8000083128:	362fffca 	tbz	w10, #5, ffffff8000083120 <handle_exception_el1+0x6c4>
ffffff800008312c:	5280014b 	mov	w11, #0xa                   	// #10
ffffff8000083130:	aa1f03ea 	mov	x10, xzr
ffffff8000083134:	b81ec10b 	stur	w11, [x8, #-20]
ffffff8000083138:	f000000b 	adrp	x11, ffffff8000086000 <TCR_EL1_VALUE+0x968>
ffffff800008313c:	9138056b 	add	x11, x11, #0xe01
ffffff8000083140:	386a696c 	ldrb	w12, [x11, x10]
ffffff8000083144:	7100299f 	cmp	w12, #0xa
ffffff8000083148:	54000121 	b.ne	ffffff800008316c <handle_exception_el1+0x710>  // b.any
ffffff800008314c:	b940010d 	ldr	w13, [x8]
ffffff8000083150:	3728008d 	tbnz	w13, #5, ffffff8000083160 <handle_exception_el1+0x704>
ffffff8000083154:	d503201f 	nop
ffffff8000083158:	b940010d 	ldr	w13, [x8]
ffffff800008315c:	362fffcd 	tbz	w13, #5, ffffff8000083154 <handle_exception_el1+0x6f8>
ffffff8000083160:	b81ec109 	stur	w9, [x8, #-20]
ffffff8000083164:	14000002 	b	ffffff800008316c <handle_exception_el1+0x710>
ffffff8000083168:	d503201f 	nop
ffffff800008316c:	b940010d 	ldr	w13, [x8]
ffffff8000083170:	362fffcd 	tbz	w13, #5, ffffff8000083168 <handle_exception_el1+0x70c>
ffffff8000083174:	9100054a 	add	x10, x10, #0x1
ffffff8000083178:	b81ec10c 	stur	w12, [x8, #-20]
ffffff800008317c:	f100755f 	cmp	x10, #0x1d
ffffff8000083180:	54fffe01 	b.ne	ffffff8000083140 <handle_exception_el1+0x6e4>  // b.any
ffffff8000083184:	14000002 	b	ffffff800008318c <handle_exception_el1+0x730>
ffffff8000083188:	d503201f 	nop
ffffff800008318c:	b9400109 	ldr	w9, [x8]
ffffff8000083190:	362fffc9 	tbz	w9, #5, ffffff8000083188 <handle_exception_el1+0x72c>
ffffff8000083194:	528001a9 	mov	w9, #0xd                   	// #13
ffffff8000083198:	b81ec109 	stur	w9, [x8, #-20]
ffffff800008319c:	b9400109 	ldr	w9, [x8]
ffffff80000831a0:	37280089 	tbnz	w9, #5, ffffff80000831b0 <handle_exception_el1+0x754>
ffffff80000831a4:	d503201f 	nop
ffffff80000831a8:	b9400109 	ldr	w9, [x8]
ffffff80000831ac:	362fffc9 	tbz	w9, #5, ffffff80000831a4 <handle_exception_el1+0x748>
ffffff80000831b0:	52800149 	mov	w9, #0xa                   	// #10
ffffff80000831b4:	aa1303e0 	mov	x0, x19
ffffff80000831b8:	b81ec109 	stur	w9, [x8, #-20]
ffffff80000831bc:	97fffb58 	bl	ffffff8000081f1c <_ZN5at_os6kernel10exceptions23print_exception_context17h67ed1ce79c9c1ffbE>
ffffff80000831c0:	a94d4ff4 	ldp	x20, x19, [sp, #208]
ffffff80000831c4:	f9405bfe 	ldr	x30, [sp, #176]
ffffff80000831c8:	a94c57f6 	ldp	x22, x21, [sp, #192]
ffffff80000831cc:	910383ff 	add	sp, sp, #0xe0
ffffff80000831d0:	d65f03c0 	ret
ffffff80000831d4:	9295f568 	mov	x8, #0xffffffffffff5054    	// #-44972
ffffff80000831d8:	aa1f03e9 	mov	x9, xzr
ffffff80000831dc:	f000000a 	adrp	x10, ffffff8000086000 <TCR_EL1_VALUE+0x968>
ffffff80000831e0:	9138054a 	add	x10, x10, #0xe01
ffffff80000831e4:	f2a7e428 	movk	x8, #0x3f21, lsl #16
ffffff80000831e8:	528001ab 	mov	w11, #0xd                   	// #13
ffffff80000831ec:	f2dff008 	movk	x8, #0xff80, lsl #32
ffffff80000831f0:	3869694c 	ldrb	w12, [x10, x9]
ffffff80000831f4:	7100299f 	cmp	w12, #0xa
ffffff80000831f8:	54000121 	b.ne	ffffff800008321c <handle_exception_el1+0x7c0>  // b.any
ffffff80000831fc:	b940010d 	ldr	w13, [x8]
ffffff8000083200:	3728008d 	tbnz	w13, #5, ffffff8000083210 <handle_exception_el1+0x7b4>
ffffff8000083204:	d503201f 	nop
ffffff8000083208:	b940010d 	ldr	w13, [x8]
ffffff800008320c:	362fffcd 	tbz	w13, #5, ffffff8000083204 <handle_exception_el1+0x7a8>
ffffff8000083210:	b81ec10b 	stur	w11, [x8, #-20]
ffffff8000083214:	14000002 	b	ffffff800008321c <handle_exception_el1+0x7c0>
ffffff8000083218:	d503201f 	nop
ffffff800008321c:	b940010d 	ldr	w13, [x8]
ffffff8000083220:	362fffcd 	tbz	w13, #5, ffffff8000083218 <handle_exception_el1+0x7bc>
ffffff8000083224:	91000529 	add	x9, x9, #0x1
ffffff8000083228:	b81ec10c 	stur	w12, [x8, #-20]
ffffff800008322c:	f100753f 	cmp	x9, #0x1d
ffffff8000083230:	54fffe01 	b.ne	ffffff80000831f0 <handle_exception_el1+0x794>  // b.any
ffffff8000083234:	14000002 	b	ffffff800008323c <handle_exception_el1+0x7e0>
ffffff8000083238:	d503201f 	nop
ffffff800008323c:	b9400109 	ldr	w9, [x8]
ffffff8000083240:	362fffc9 	tbz	w9, #5, ffffff8000083238 <handle_exception_el1+0x7dc>
ffffff8000083244:	528001a9 	mov	w9, #0xd                   	// #13
ffffff8000083248:	b81ec109 	stur	w9, [x8, #-20]
ffffff800008324c:	b9400109 	ldr	w9, [x8]
ffffff8000083250:	372fd829 	tbnz	w9, #5, ffffff8000082d54 <handle_exception_el1+0x2f8>
ffffff8000083254:	d503201f 	nop
ffffff8000083258:	b9400109 	ldr	w9, [x8]
ffffff800008325c:	362fffc9 	tbz	w9, #5, ffffff8000083254 <handle_exception_el1+0x7f8>
ffffff8000083260:	17fffebd 	b	ffffff8000082d54 <handle_exception_el1+0x2f8>
ffffff8000083264:	9295f568 	mov	x8, #0xffffffffffff5054    	// #-44972
ffffff8000083268:	aa1f03e9 	mov	x9, xzr
ffffff800008326c:	f000000a 	adrp	x10, ffffff8000086000 <TCR_EL1_VALUE+0x968>
ffffff8000083270:	9138e14a 	add	x10, x10, #0xe38
ffffff8000083274:	f2a7e428 	movk	x8, #0x3f21, lsl #16
ffffff8000083278:	528001ab 	mov	w11, #0xd                   	// #13
ffffff800008327c:	f2dff008 	movk	x8, #0xff80, lsl #32
ffffff8000083280:	3869694c 	ldrb	w12, [x10, x9]
ffffff8000083284:	7100299f 	cmp	w12, #0xa
ffffff8000083288:	54000121 	b.ne	ffffff80000832ac <handle_exception_el1+0x850>  // b.any
ffffff800008328c:	b940010d 	ldr	w13, [x8]
ffffff8000083290:	3728008d 	tbnz	w13, #5, ffffff80000832a0 <handle_exception_el1+0x844>
ffffff8000083294:	d503201f 	nop
ffffff8000083298:	b940010d 	ldr	w13, [x8]
ffffff800008329c:	362fffcd 	tbz	w13, #5, ffffff8000083294 <handle_exception_el1+0x838>
ffffff80000832a0:	b81ec10b 	stur	w11, [x8, #-20]
ffffff80000832a4:	14000002 	b	ffffff80000832ac <handle_exception_el1+0x850>
ffffff80000832a8:	d503201f 	nop
ffffff80000832ac:	b940010d 	ldr	w13, [x8]
ffffff80000832b0:	362fffcd 	tbz	w13, #5, ffffff80000832a8 <handle_exception_el1+0x84c>
ffffff80000832b4:	91000529 	add	x9, x9, #0x1
ffffff80000832b8:	b81ec10c 	stur	w12, [x8, #-20]
ffffff80000832bc:	f100dd3f 	cmp	x9, #0x37
ffffff80000832c0:	54fffe01 	b.ne	ffffff8000083280 <handle_exception_el1+0x824>  // b.any
ffffff80000832c4:	14000002 	b	ffffff80000832cc <handle_exception_el1+0x870>
ffffff80000832c8:	d503201f 	nop
ffffff80000832cc:	b9400109 	ldr	w9, [x8]
ffffff80000832d0:	362fffc9 	tbz	w9, #5, ffffff80000832c8 <handle_exception_el1+0x86c>
ffffff80000832d4:	528001a9 	mov	w9, #0xd                   	// #13
ffffff80000832d8:	b81ec109 	stur	w9, [x8, #-20]
ffffff80000832dc:	b9400109 	ldr	w9, [x8]
ffffff80000832e0:	37280089 	tbnz	w9, #5, ffffff80000832f0 <handle_exception_el1+0x894>
ffffff80000832e4:	d503201f 	nop
ffffff80000832e8:	b9400109 	ldr	w9, [x8]
ffffff80000832ec:	362fffc9 	tbz	w9, #5, ffffff80000832e4 <handle_exception_el1+0x888>
ffffff80000832f0:	52800149 	mov	w9, #0xa                   	// #10
ffffff80000832f4:	b81ec109 	stur	w9, [x8, #-20]
ffffff80000832f8:	a94d4ff4 	ldp	x20, x19, [sp, #208]
ffffff80000832fc:	f9405bfe 	ldr	x30, [sp, #176]
ffffff8000083300:	a94c57f6 	ldp	x22, x21, [sp, #192]
ffffff8000083304:	910383ff 	add	sp, sp, #0xe0
ffffff8000083308:	d65f03c0 	ret
ffffff800008330c:	9295f568 	mov	x8, #0xffffffffffff5054    	// #-44972
ffffff8000083310:	aa1f03e9 	mov	x9, xzr
ffffff8000083314:	f000000a 	adrp	x10, ffffff8000086000 <TCR_EL1_VALUE+0x968>
ffffff8000083318:	9138054a 	add	x10, x10, #0xe01
ffffff800008331c:	f2a7e428 	movk	x8, #0x3f21, lsl #16
ffffff8000083320:	528001ab 	mov	w11, #0xd                   	// #13
ffffff8000083324:	f2dff008 	movk	x8, #0xff80, lsl #32
ffffff8000083328:	3869694c 	ldrb	w12, [x10, x9]
ffffff800008332c:	7100299f 	cmp	w12, #0xa
ffffff8000083330:	54000121 	b.ne	ffffff8000083354 <handle_exception_el1+0x8f8>  // b.any
ffffff8000083334:	b940010d 	ldr	w13, [x8]
ffffff8000083338:	3728008d 	tbnz	w13, #5, ffffff8000083348 <handle_exception_el1+0x8ec>
ffffff800008333c:	d503201f 	nop
ffffff8000083340:	b940010d 	ldr	w13, [x8]
ffffff8000083344:	362fffcd 	tbz	w13, #5, ffffff800008333c <handle_exception_el1+0x8e0>
ffffff8000083348:	b81ec10b 	stur	w11, [x8, #-20]
ffffff800008334c:	14000002 	b	ffffff8000083354 <handle_exception_el1+0x8f8>
ffffff8000083350:	d503201f 	nop
ffffff8000083354:	b940010d 	ldr	w13, [x8]
ffffff8000083358:	362fffcd 	tbz	w13, #5, ffffff8000083350 <handle_exception_el1+0x8f4>
ffffff800008335c:	91000529 	add	x9, x9, #0x1
ffffff8000083360:	b81ec10c 	stur	w12, [x8, #-20]
ffffff8000083364:	f100753f 	cmp	x9, #0x1d
ffffff8000083368:	54fffe01 	b.ne	ffffff8000083328 <handle_exception_el1+0x8cc>  // b.any
ffffff800008336c:	14000002 	b	ffffff8000083374 <handle_exception_el1+0x918>
ffffff8000083370:	d503201f 	nop
ffffff8000083374:	b9400109 	ldr	w9, [x8]
ffffff8000083378:	362fffc9 	tbz	w9, #5, ffffff8000083370 <handle_exception_el1+0x914>
ffffff800008337c:	528001a9 	mov	w9, #0xd                   	// #13
ffffff8000083380:	b81ec109 	stur	w9, [x8, #-20]
ffffff8000083384:	b9400109 	ldr	w9, [x8]
ffffff8000083388:	372fce69 	tbnz	w9, #5, ffffff8000082d54 <handle_exception_el1+0x2f8>
ffffff800008338c:	d503201f 	nop
ffffff8000083390:	b9400109 	ldr	w9, [x8]
ffffff8000083394:	362fffc9 	tbz	w9, #5, ffffff800008338c <handle_exception_el1+0x930>
ffffff8000083398:	17fffe6f 	b	ffffff8000082d54 <handle_exception_el1+0x2f8>
ffffff800008339c:	f9400668 	ldr	x8, [x19, #8]
ffffff80000833a0:	aa1f03e9 	mov	x9, xzr
ffffff80000833a4:	b40003a8 	cbz	x8, ffffff8000083418 <handle_exception_el1+0x9bc>
ffffff80000833a8:	f9400a6b 	ldr	x11, [x19, #16]
ffffff80000833ac:	b400036b 	cbz	x11, ffffff8000083418 <handle_exception_el1+0x9bc>
ffffff80000833b0:	9295f56a 	mov	x10, #0xffffffffffff5054    	// #-44972
ffffff80000833b4:	aa1f03e9 	mov	x9, xzr
ffffff80000833b8:	f2a7e42a 	movk	x10, #0x3f21, lsl #16
ffffff80000833bc:	f2dff00a 	movk	x10, #0xff80, lsl #32
ffffff80000833c0:	14000002 	b	ffffff80000833c8 <handle_exception_el1+0x96c>
ffffff80000833c4:	d5033fdf 	isb
ffffff80000833c8:	b940014c 	ldr	w12, [x10]
ffffff80000833cc:	3607ffcc 	tbz	w12, #0, ffffff80000833c4 <handle_exception_el1+0x968>
ffffff80000833d0:	b85ec14c 	ldur	w12, [x10, #-20]
ffffff80000833d4:	12001d8d 	and	w13, w12, #0xff
ffffff80000833d8:	710029bf 	cmp	w13, #0xa
ffffff80000833dc:	54ffff60 	b.eq	ffffff80000833c8 <handle_exception_el1+0x96c>  // b.none
ffffff80000833e0:	710035bf 	cmp	w13, #0xd
ffffff80000833e4:	54000280 	b.eq	ffffff8000083434 <handle_exception_el1+0x9d8>  // b.none
ffffff80000833e8:	b940014d 	ldr	w13, [x10]
ffffff80000833ec:	3728008d 	tbnz	w13, #5, ffffff80000833fc <handle_exception_el1+0x9a0>
ffffff80000833f0:	d503201f 	nop
ffffff80000833f4:	b940014d 	ldr	w13, [x10]
ffffff80000833f8:	362fffcd 	tbz	w13, #5, ffffff80000833f0 <handle_exception_el1+0x994>
ffffff80000833fc:	12001d8d 	and	w13, w12, #0xff
ffffff8000083400:	b81ec14d 	stur	w13, [x10, #-20]
ffffff8000083404:	3829690c 	strb	w12, [x8, x9]
ffffff8000083408:	91000529 	add	x9, x9, #0x1
ffffff800008340c:	eb0b013f 	cmp	x9, x11
ffffff8000083410:	54fffdc1 	b.ne	ffffff80000833c8 <handle_exception_el1+0x96c>  // b.any
ffffff8000083414:	aa0b03e9 	mov	x9, x11
ffffff8000083418:	f9000669 	str	x9, [x19, #8]
ffffff800008341c:	a94d4ff4 	ldp	x20, x19, [sp, #208]
ffffff8000083420:	f9405bfe 	ldr	x30, [sp, #176]
ffffff8000083424:	a94c57f6 	ldp	x22, x21, [sp, #192]
ffffff8000083428:	910383ff 	add	sp, sp, #0xe0
ffffff800008342c:	d65f03c0 	ret
ffffff8000083430:	d503201f 	nop
ffffff8000083434:	b940014b 	ldr	w11, [x10]
ffffff8000083438:	362fffcb 	tbz	w11, #5, ffffff8000083430 <handle_exception_el1+0x9d4>
ffffff800008343c:	5280014b 	mov	w11, #0xa                   	// #10
ffffff8000083440:	b81ec14b 	stur	w11, [x10, #-20]
ffffff8000083444:	3829690b 	strb	w11, [x8, x9]
ffffff8000083448:	91000529 	add	x9, x9, #0x1
ffffff800008344c:	f9000669 	str	x9, [x19, #8]
ffffff8000083450:	a94d4ff4 	ldp	x20, x19, [sp, #208]
ffffff8000083454:	f9405bfe 	ldr	x30, [sp, #176]
ffffff8000083458:	a94c57f6 	ldp	x22, x21, [sp, #192]
ffffff800008345c:	910383ff 	add	sp, sp, #0xe0
ffffff8000083460:	d65f03c0 	ret
ffffff8000083464:	a9408660 	ldp	x0, x1, [x19, #8]
ffffff8000083468:	910263e8 	add	x8, sp, #0x98
ffffff800008346c:	940006eb 	bl	ffffff8000085018 <_ZN4core3str8converts9from_utf817hf38ca99ab34556a4E>
ffffff8000083470:	b9409be8 	ldr	w8, [sp, #152]
ffffff8000083474:	a94a2be9 	ldp	x9, x10, [sp, #160]
ffffff8000083478:	f0000001 	adrp	x1, ffffff8000086000 <TCR_EL1_VALUE+0x968>
ffffff800008347c:	913ee021 	add	x1, x1, #0xfb8
ffffff8000083480:	f0000002 	adrp	x2, ffffff8000086000 <TCR_EL1_VALUE+0x968>
ffffff8000083484:	91244842 	add	x2, x2, #0x912
ffffff8000083488:	7100011f 	cmp	w8, #0x0
ffffff800008348c:	9102ffe0 	add	x0, sp, #0xbf
ffffff8000083490:	9a9f0528 	csinc	x8, x9, xzr, eq	// eq = none
ffffff8000083494:	9a8a13e9 	csel	x9, xzr, x10, ne	// ne = any
ffffff8000083498:	910263e3 	add	x3, sp, #0x98
ffffff800008349c:	a908a7e8 	stp	x8, x9, [sp, #136]
ffffff80000834a0:	910223e8 	add	x8, sp, #0x88
ffffff80000834a4:	d0ffffe9 	adrp	x9, ffffff8000081000 <el11t_sync>
ffffff80000834a8:	9137a129 	add	x9, x9, #0xde8
ffffff80000834ac:	a909a7e8 	stp	x8, x9, [sp, #152]
ffffff80000834b0:	9400022e 	bl	ffffff8000083d68 <_ZN4core3fmt5write17h4e09d17c17eebf64E>
ffffff80000834b4:	34ffd060 	cbz	w0, ffffff8000082ec0 <handle_exception_el1+0x464>
ffffff80000834b8:	f0000000 	adrp	x0, ffffff8000086000 <TCR_EL1_VALUE+0x968>
ffffff80000834bc:	91362000 	add	x0, x0, #0xd88
ffffff80000834c0:	f0000003 	adrp	x3, ffffff8000086000 <TCR_EL1_VALUE+0x968>
ffffff80000834c4:	9135a063 	add	x3, x3, #0xd68
ffffff80000834c8:	90000024 	adrp	x4, ffffff8000087000 <TCR_EL1_VALUE+0x1968>
ffffff80000834cc:	91014084 	add	x4, x4, #0x50
ffffff80000834d0:	9102ffe2 	add	x2, sp, #0xbf
ffffff80000834d4:	52800561 	mov	w1, #0x2b                  	// #43
ffffff80000834d8:	94000778 	bl	ffffff80000852b8 <_ZN4core6result13unwrap_failed17h89589bbb6ce8ba23E>
ffffff80000834dc:	9102f3e8 	add	x8, sp, #0xbc
ffffff80000834e0:	90000009 	adrp	x9, ffffff8000083000 <handle_exception_el1+0x5a4>
ffffff80000834e4:	912aa129 	add	x9, x9, #0xaa8
ffffff80000834e8:	f0000001 	adrp	x1, ffffff8000086000 <TCR_EL1_VALUE+0x968>
ffffff80000834ec:	913ee021 	add	x1, x1, #0xfb8
ffffff80000834f0:	f0000002 	adrp	x2, ffffff8000086000 <TCR_EL1_VALUE+0x968>
ffffff80000834f4:	91021c42 	add	x2, x2, #0x87
ffffff80000834f8:	9102ffe0 	add	x0, sp, #0xbf
ffffff80000834fc:	910263e3 	add	x3, sp, #0x98
ffffff8000083500:	a909a7e8 	stp	x8, x9, [sp, #152]
ffffff8000083504:	94000219 	bl	ffffff8000083d68 <_ZN4core3fmt5write17h4e09d17c17eebf64E>
ffffff8000083508:	3607cdc0 	tbz	w0, #0, ffffff8000082ec0 <handle_exception_el1+0x464>
ffffff800008350c:	f0000000 	adrp	x0, ffffff8000086000 <TCR_EL1_VALUE+0x968>
ffffff8000083510:	91362000 	add	x0, x0, #0xd88
ffffff8000083514:	f0000003 	adrp	x3, ffffff8000086000 <TCR_EL1_VALUE+0x968>
ffffff8000083518:	9135a063 	add	x3, x3, #0xd68
ffffff800008351c:	90000024 	adrp	x4, ffffff8000087000 <TCR_EL1_VALUE+0x1968>
ffffff8000083520:	9100e084 	add	x4, x4, #0x38
ffffff8000083524:	9102ffe2 	add	x2, sp, #0xbf
ffffff8000083528:	52800561 	mov	w1, #0x2b                  	// #43
ffffff800008352c:	94000763 	bl	ffffff80000852b8 <_ZN4core6result13unwrap_failed17h89589bbb6ce8ba23E>
ffffff8000083530:	90000020 	adrp	x0, ffffff8000087000 <TCR_EL1_VALUE+0x1968>
ffffff8000083534:	91034000 	add	x0, x0, #0xd0
ffffff8000083538:	90000022 	adrp	x2, ffffff8000087000 <TCR_EL1_VALUE+0x1968>
ffffff800008353c:	91042042 	add	x2, x2, #0x108
ffffff8000083540:	52800e21 	mov	w1, #0x71                  	// #113
ffffff8000083544:	9400077e 	bl	ffffff800008533c <_ZN4core9panicking9panic_fmt17hf8c9ba6c2299d6edE>
ffffff8000083548:	f0000000 	adrp	x0, ffffff8000086000 <TCR_EL1_VALUE+0x968>
ffffff800008354c:	91362000 	add	x0, x0, #0xd88
ffffff8000083550:	f0000003 	adrp	x3, ffffff8000086000 <TCR_EL1_VALUE+0x968>
ffffff8000083554:	9135a063 	add	x3, x3, #0xd68
ffffff8000083558:	f0000004 	adrp	x4, ffffff8000086000 <TCR_EL1_VALUE+0x968>
ffffff800008355c:	91388084 	add	x4, x4, #0xe20
ffffff8000083560:	9102ffe2 	add	x2, sp, #0xbf
ffffff8000083564:	52800561 	mov	w1, #0x2b                  	// #43
ffffff8000083568:	94000754 	bl	ffffff80000852b8 <_ZN4core6result13unwrap_failed17h89589bbb6ce8ba23E>
ffffff800008356c:	f0000000 	adrp	x0, ffffff8000086000 <TCR_EL1_VALUE+0x968>
ffffff8000083570:	913fa000 	add	x0, x0, #0xfe8
ffffff8000083574:	90000022 	adrp	x2, ffffff8000087000 <TCR_EL1_VALUE+0x1968>
ffffff8000083578:	91008042 	add	x2, x2, #0x20
ffffff800008357c:	528003a1 	mov	w1, #0x1d                  	// #29
ffffff8000083580:	94000742 	bl	ffffff8000085288 <_ZN4core6option13expect_failed17hb35fc25fa37940a7E>
ffffff8000083584:	f0000000 	adrp	x0, ffffff8000086000 <TCR_EL1_VALUE+0x968>
ffffff8000083588:	913fa000 	add	x0, x0, #0xfe8
ffffff800008358c:	90000022 	adrp	x2, ffffff8000087000 <TCR_EL1_VALUE+0x1968>
ffffff8000083590:	91002042 	add	x2, x2, #0x8
ffffff8000083594:	528003a1 	mov	w1, #0x1d                  	// #29
ffffff8000083598:	9400073c 	bl	ffffff8000085288 <_ZN4core6option13expect_failed17hb35fc25fa37940a7E>
ffffff800008359c:	90000020 	adrp	x0, ffffff8000087000 <TCR_EL1_VALUE+0x1968>
ffffff80000835a0:	91048000 	add	x0, x0, #0x120
ffffff80000835a4:	90000022 	adrp	x2, ffffff8000087000 <TCR_EL1_VALUE+0x1968>
ffffff80000835a8:	91054042 	add	x2, x2, #0x150
ffffff80000835ac:	52800b61 	mov	w1, #0x5b                  	// #91
ffffff80000835b0:	94000763 	bl	ffffff800008533c <_ZN4core9panicking9panic_fmt17hf8c9ba6c2299d6edE>
ffffff80000835b4:	90000020 	adrp	x0, ffffff8000087000 <TCR_EL1_VALUE+0x1968>
ffffff80000835b8:	9101a000 	add	x0, x0, #0x68
ffffff80000835bc:	90000022 	adrp	x2, ffffff8000087000 <TCR_EL1_VALUE+0x1968>
ffffff80000835c0:	91028042 	add	x2, x2, #0xa0
ffffff80000835c4:	52800ce1 	mov	w1, #0x67                  	// #103
ffffff80000835c8:	9400075d 	bl	ffffff800008533c <_ZN4core9panicking9panic_fmt17hf8c9ba6c2299d6edE>
ffffff80000835cc:	97fffbcb 	bl	ffffff80000824f8 <_ZN5at_os7the_end17hb4ebf2ebd834f4dfE>
ffffff80000835d0:	90000022 	adrp	x2, ffffff8000087000 <TCR_EL1_VALUE+0x1968>
ffffff80000835d4:	9102e042 	add	x2, x2, #0xb8
ffffff80000835d8:	52800641 	mov	w1, #0x32                  	// #50
ffffff80000835dc:	9400074a 	bl	ffffff8000085304 <_ZN4core9panicking18panic_bounds_check17h210ff946a1327b86E>

ffffff80000835e0 <_ZN42_$LT$$RF$T$u20$as$u20$core..fmt..Debug$GT$3fmt17h7d9497f03c63b3a6E>:
ffffff80000835e0:	a9402000 	ldp	x0, x8, [x0]
ffffff80000835e4:	f9400d02 	ldr	x2, [x8, #24]
ffffff80000835e8:	d61f0040 	br	x2

ffffff80000835ec <_ZN42_$LT$str$u20$as$u20$core..fmt..Display$GT$3fmt17hb69d67a4c6f3d4d1E>:
ffffff80000835ec:	aa0103e8 	mov	x8, x1
ffffff80000835f0:	aa0003e1 	mov	x1, x0
ffffff80000835f4:	aa0203e0 	mov	x0, x2
ffffff80000835f8:	aa0803e2 	mov	x2, x8
ffffff80000835fc:	140003a0 	b	ffffff800008447c <_ZN4core3fmt9Formatter3pad17hd5e22725c7165dbdE>

ffffff8000083600 <_ZN44_$LT$$RF$T$u20$as$u20$core..fmt..Display$GT$3fmt17h097300e123816cc8E>:
ffffff8000083600:	a9400808 	ldp	x8, x2, [x0]
ffffff8000083604:	aa0103e0 	mov	x0, x1
ffffff8000083608:	aa0803e1 	mov	x1, x8
ffffff800008360c:	1400039c 	b	ffffff800008447c <_ZN4core3fmt9Formatter3pad17hd5e22725c7165dbdE>

ffffff8000083610 <_ZN4core3fmt3num3imp21_$LT$impl$u20$u32$GT$10_fmt_inner17h32293f8b061dea48E>:
ffffff8000083610:	a9bf7bfd 	stp	x29, x30, [sp, #-16]!
ffffff8000083614:	910003fd 	mov	x29, sp
ffffff8000083618:	710fa01f 	cmp	w0, #0x3e8
ffffff800008361c:	2a0003e9 	mov	w9, w0
ffffff8000083620:	aa0203ea 	mov	x10, x2
ffffff8000083624:	54000683 	b.cc	ffffff80000836f4 <_ZN4core3fmt3num3imp21_$LT$impl$u20$u32$GT$10_fmt_inner17h32293f8b061dea48E+0xe4>  // b.lo, b.ul, b.last
ffffff8000083628:	5282eb2c 	mov	w12, #0x1759                	// #5977
ffffff800008362c:	5292cff1 	mov	w17, #0x967f                	// #38527
ffffff8000083630:	aa1f03ea 	mov	x10, xzr
ffffff8000083634:	d100082b 	sub	x11, x1, #0x2
ffffff8000083638:	72ba36ec 	movk	w12, #0xd1b7, lsl #16
ffffff800008363c:	5284e20d 	mov	w13, #0x2710                	// #10000
ffffff8000083640:	52828f6e 	mov	w14, #0x147b                	// #5243
ffffff8000083644:	9000002f 	adrp	x15, ffffff8000087000 <TCR_EL1_VALUE+0x1968>
ffffff8000083648:	910e41ef 	add	x15, x15, #0x390
ffffff800008364c:	52800c90 	mov	w16, #0x64                  	// #100
ffffff8000083650:	72a01311 	movk	w17, #0x98, lsl #16
ffffff8000083654:	2a0003f2 	mov	w18, w0
ffffff8000083658:	8b0a0045 	add	x5, x2, x10
ffffff800008365c:	d10010a8 	sub	x8, x5, #0x4
ffffff8000083660:	eb02011f 	cmp	x8, x2
ffffff8000083664:	540009c2 	b.cs	ffffff800008379c <_ZN4core3fmt3num3imp21_$LT$impl$u20$u32$GT$10_fmt_inner17h32293f8b061dea48E+0x18c>  // b.hs, b.nlast
ffffff8000083668:	9bac7e48 	umull	x8, w18, w12
ffffff800008366c:	d1000ca7 	sub	x7, x5, #0x3
ffffff8000083670:	8b020165 	add	x5, x11, x2
ffffff8000083674:	eb0200ff 	cmp	x7, x2
ffffff8000083678:	d36dfd09 	lsr	x9, x8, #45
ffffff800008367c:	1b0dc923 	msub	w3, w9, w13, w18
ffffff8000083680:	53023c68 	ubfx	w8, w3, #2, #14
ffffff8000083684:	1b0e7d08 	mul	w8, w8, w14
ffffff8000083688:	53117d04 	lsr	w4, w8, #17
ffffff800008368c:	8b2445e8 	add	x8, x15, w4, uxtw #1
ffffff8000083690:	39400106 	ldrb	w6, [x8]
ffffff8000083694:	381fe0a6 	sturb	w6, [x5, #-2]
ffffff8000083698:	540009c2 	b.cs	ffffff80000837d0 <_ZN4core3fmt3num3imp21_$LT$impl$u20$u32$GT$10_fmt_inner17h32293f8b061dea48E+0x1c0>  // b.hs, b.nlast
ffffff800008369c:	8b0a0046 	add	x6, x2, x10
ffffff80000836a0:	39400507 	ldrb	w7, [x8, #1]
ffffff80000836a4:	d10008c8 	sub	x8, x6, #0x2
ffffff80000836a8:	eb02011f 	cmp	x8, x2
ffffff80000836ac:	381ff0a7 	sturb	w7, [x5, #-1]
ffffff80000836b0:	54000762 	b.cs	ffffff800008379c <_ZN4core3fmt3num3imp21_$LT$impl$u20$u32$GT$10_fmt_inner17h32293f8b061dea48E+0x18c>  // b.hs, b.nlast
ffffff80000836b4:	1b108c88 	msub	w8, w4, w16, w3
ffffff80000836b8:	d10004c3 	sub	x3, x6, #0x1
ffffff80000836bc:	eb02007f 	cmp	x3, x2
ffffff80000836c0:	8b2825e8 	add	x8, x15, w8, uxth #1
ffffff80000836c4:	39400104 	ldrb	w4, [x8]
ffffff80000836c8:	38226964 	strb	w4, [x11, x2]
ffffff80000836cc:	54000742 	b.cs	ffffff80000837b4 <_ZN4core3fmt3num3imp21_$LT$impl$u20$u32$GT$10_fmt_inner17h32293f8b061dea48E+0x1a4>  // b.hs, b.nlast
ffffff80000836d0:	39400508 	ldrb	w8, [x8, #1]
ffffff80000836d4:	8b020163 	add	x3, x11, x2
ffffff80000836d8:	6b11025f 	cmp	w18, w17
ffffff80000836dc:	d100114a 	sub	x10, x10, #0x4
ffffff80000836e0:	d100116b 	sub	x11, x11, #0x4
ffffff80000836e4:	2a0903f2 	mov	w18, w9
ffffff80000836e8:	39000468 	strb	w8, [x3, #1]
ffffff80000836ec:	54fffb68 	b.hi	ffffff8000083658 <_ZN4core3fmt3num3imp21_$LT$impl$u20$u32$GT$10_fmt_inner17h32293f8b061dea48E+0x48>  // b.pmore
ffffff80000836f0:	8b0a004a 	add	x10, x2, x10
ffffff80000836f4:	7100253f 	cmp	w9, #0x9
ffffff80000836f8:	540002e9 	b.ls	ffffff8000083754 <_ZN4core3fmt3num3imp21_$LT$impl$u20$u32$GT$10_fmt_inner17h32293f8b061dea48E+0x144>  // b.plast
ffffff80000836fc:	d1000948 	sub	x8, x10, #0x2
ffffff8000083700:	eb02011f 	cmp	x8, x2
ffffff8000083704:	540004c2 	b.cs	ffffff800008379c <_ZN4core3fmt3num3imp21_$LT$impl$u20$u32$GT$10_fmt_inner17h32293f8b061dea48E+0x18c>  // b.hs, b.nlast
ffffff8000083708:	53023d2b 	ubfx	w11, w9, #2, #14
ffffff800008370c:	52828f6c 	mov	w12, #0x147b                	// #5243
ffffff8000083710:	1b0c7d6b 	mul	w11, w11, w12
ffffff8000083714:	52800c8c 	mov	w12, #0x64                  	// #100
ffffff8000083718:	53117d6b 	lsr	w11, w11, #17
ffffff800008371c:	1b0ca569 	msub	w9, w11, w12, w9
ffffff8000083720:	9000002c 	adrp	x12, ffffff8000087000 <TCR_EL1_VALUE+0x1968>
ffffff8000083724:	910e418c 	add	x12, x12, #0x390
ffffff8000083728:	8b29258c 	add	x12, x12, w9, uxth #1
ffffff800008372c:	d1000549 	sub	x9, x10, #0x1
ffffff8000083730:	eb02013f 	cmp	x9, x2
ffffff8000083734:	3940018a 	ldrb	w10, [x12]
ffffff8000083738:	3828682a 	strb	w10, [x1, x8]
ffffff800008373c:	54000582 	b.cs	ffffff80000837ec <_ZN4core3fmt3num3imp21_$LT$impl$u20$u32$GT$10_fmt_inner17h32293f8b061dea48E+0x1dc>  // b.hs, b.nlast
ffffff8000083740:	3940058a 	ldrb	w10, [x12, #1]
ffffff8000083744:	3829682a 	strb	w10, [x1, x9]
ffffff8000083748:	2a0b03e9 	mov	w9, w11
ffffff800008374c:	35000080 	cbnz	w0, ffffff800008375c <_ZN4core3fmt3num3imp21_$LT$impl$u20$u32$GT$10_fmt_inner17h32293f8b061dea48E+0x14c>
ffffff8000083750:	14000007 	b	ffffff800008376c <_ZN4core3fmt3num3imp21_$LT$impl$u20$u32$GT$10_fmt_inner17h32293f8b061dea48E+0x15c>
ffffff8000083754:	aa0a03e8 	mov	x8, x10
ffffff8000083758:	340000a0 	cbz	w0, ffffff800008376c <_ZN4core3fmt3num3imp21_$LT$impl$u20$u32$GT$10_fmt_inner17h32293f8b061dea48E+0x15c>
ffffff800008375c:	35000089 	cbnz	w9, ffffff800008376c <_ZN4core3fmt3num3imp21_$LT$impl$u20$u32$GT$10_fmt_inner17h32293f8b061dea48E+0x15c>
ffffff8000083760:	aa0803e0 	mov	x0, x8
ffffff8000083764:	a8c17bfd 	ldp	x29, x30, [sp], #16
ffffff8000083768:	d65f03c0 	ret
ffffff800008376c:	d1000508 	sub	x8, x8, #0x1
ffffff8000083770:	eb02011f 	cmp	x8, x2
ffffff8000083774:	54000142 	b.cs	ffffff800008379c <_ZN4core3fmt3num3imp21_$LT$impl$u20$u32$GT$10_fmt_inner17h32293f8b061dea48E+0x18c>  // b.hs, b.nlast
ffffff8000083778:	531f7929 	lsl	w9, w9, #1
ffffff800008377c:	9000002a 	adrp	x10, ffffff8000087000 <TCR_EL1_VALUE+0x1968>
ffffff8000083780:	910e414a 	add	x10, x10, #0x390
ffffff8000083784:	8b090149 	add	x9, x10, x9
ffffff8000083788:	39400529 	ldrb	w9, [x9, #1]
ffffff800008378c:	38286829 	strb	w9, [x1, x8]
ffffff8000083790:	aa0803e0 	mov	x0, x8
ffffff8000083794:	a8c17bfd 	ldp	x29, x30, [sp], #16
ffffff8000083798:	d65f03c0 	ret
ffffff800008379c:	90000029 	adrp	x9, ffffff8000087000 <TCR_EL1_VALUE+0x1968>
ffffff80000837a0:	91116129 	add	x9, x9, #0x458
ffffff80000837a4:	aa0803e0 	mov	x0, x8
ffffff80000837a8:	aa0203e1 	mov	x1, x2
ffffff80000837ac:	aa0903e2 	mov	x2, x9
ffffff80000837b0:	940006d5 	bl	ffffff8000085304 <_ZN4core9panicking18panic_bounds_check17h210ff946a1327b86E>
ffffff80000837b4:	8b0a0048 	add	x8, x2, x10
ffffff80000837b8:	d1000500 	sub	x0, x8, #0x1
ffffff80000837bc:	90000028 	adrp	x8, ffffff8000087000 <TCR_EL1_VALUE+0x1968>
ffffff80000837c0:	91116108 	add	x8, x8, #0x458
ffffff80000837c4:	aa0203e1 	mov	x1, x2
ffffff80000837c8:	aa0803e2 	mov	x2, x8
ffffff80000837cc:	940006ce 	bl	ffffff8000085304 <_ZN4core9panicking18panic_bounds_check17h210ff946a1327b86E>
ffffff80000837d0:	8b0a0048 	add	x8, x2, x10
ffffff80000837d4:	d1000d00 	sub	x0, x8, #0x3
ffffff80000837d8:	90000028 	adrp	x8, ffffff8000087000 <TCR_EL1_VALUE+0x1968>
ffffff80000837dc:	91116108 	add	x8, x8, #0x458
ffffff80000837e0:	aa0203e1 	mov	x1, x2
ffffff80000837e4:	aa0803e2 	mov	x2, x8
ffffff80000837e8:	940006c7 	bl	ffffff8000085304 <_ZN4core9panicking18panic_bounds_check17h210ff946a1327b86E>
ffffff80000837ec:	90000028 	adrp	x8, ffffff8000087000 <TCR_EL1_VALUE+0x1968>
ffffff80000837f0:	91116108 	add	x8, x8, #0x458
ffffff80000837f4:	aa0903e0 	mov	x0, x9
ffffff80000837f8:	aa0203e1 	mov	x1, x2
ffffff80000837fc:	aa0803e2 	mov	x2, x8
ffffff8000083800:	940006c1 	bl	ffffff8000085304 <_ZN4core9panicking18panic_bounds_check17h210ff946a1327b86E>

ffffff8000083804 <_ZN4core3fmt3num3imp21_$LT$impl$u20$u64$GT$10_fmt_inner17h160aed75b3a7f0e2E>:
ffffff8000083804:	a9bf7bfd 	stp	x29, x30, [sp, #-16]!
ffffff8000083808:	910003fd 	mov	x29, sp
ffffff800008380c:	f10fa01f 	cmp	x0, #0x3e8
ffffff8000083810:	aa0003ea 	mov	x10, x0
ffffff8000083814:	aa0203e9 	mov	x9, x2
ffffff8000083818:	540006c3 	b.cc	ffffff80000838f0 <_ZN4core3fmt3num3imp21_$LT$impl$u20$u64$GT$10_fmt_inner17h160aed75b3a7f0e2E+0xec>  // b.lo, b.ul, b.last
ffffff800008381c:	d28b296c 	mov	x12, #0x594b                	// #22859
ffffff8000083820:	5292cff1 	mov	w17, #0x967f                	// #38527
ffffff8000083824:	aa1f03e9 	mov	x9, xzr
ffffff8000083828:	f2a710cc 	movk	x12, #0x3886, lsl #16
ffffff800008382c:	d100082b 	sub	x11, x1, #0x2
ffffff8000083830:	5284e20d 	mov	w13, #0x2710                	// #10000
ffffff8000083834:	f2d8bacc 	movk	x12, #0xc5d6, lsl #32
ffffff8000083838:	52828f6e 	mov	w14, #0x147b                	// #5243
ffffff800008383c:	9000002f 	adrp	x15, ffffff8000087000 <TCR_EL1_VALUE+0x1968>
ffffff8000083840:	910e41ef 	add	x15, x15, #0x390
ffffff8000083844:	f2e68dac 	movk	x12, #0x346d, lsl #48
ffffff8000083848:	52800c90 	mov	w16, #0x64                  	// #100
ffffff800008384c:	72a01311 	movk	w17, #0x98, lsl #16
ffffff8000083850:	aa0003f2 	mov	x18, x0
ffffff8000083854:	8b090045 	add	x5, x2, x9
ffffff8000083858:	d10010a8 	sub	x8, x5, #0x4
ffffff800008385c:	eb02011f 	cmp	x8, x2
ffffff8000083860:	540009a2 	b.cs	ffffff8000083994 <_ZN4core3fmt3num3imp21_$LT$impl$u20$u64$GT$10_fmt_inner17h160aed75b3a7f0e2E+0x190>  // b.hs, b.nlast
ffffff8000083864:	9bcc7e48 	umulh	x8, x18, x12
ffffff8000083868:	d1000ca7 	sub	x7, x5, #0x3
ffffff800008386c:	8b020165 	add	x5, x11, x2
ffffff8000083870:	eb0200ff 	cmp	x7, x2
ffffff8000083874:	d34bfd0a 	lsr	x10, x8, #11
ffffff8000083878:	1b0dc943 	msub	w3, w10, w13, w18
ffffff800008387c:	53023c68 	ubfx	w8, w3, #2, #14
ffffff8000083880:	1b0e7d08 	mul	w8, w8, w14
ffffff8000083884:	53117d04 	lsr	w4, w8, #17
ffffff8000083888:	8b2445e8 	add	x8, x15, w4, uxtw #1
ffffff800008388c:	39400106 	ldrb	w6, [x8]
ffffff8000083890:	381fe0a6 	sturb	w6, [x5, #-2]
ffffff8000083894:	540009a2 	b.cs	ffffff80000839c8 <_ZN4core3fmt3num3imp21_$LT$impl$u20$u64$GT$10_fmt_inner17h160aed75b3a7f0e2E+0x1c4>  // b.hs, b.nlast
ffffff8000083898:	8b090046 	add	x6, x2, x9
ffffff800008389c:	39400507 	ldrb	w7, [x8, #1]
ffffff80000838a0:	d10008c8 	sub	x8, x6, #0x2
ffffff80000838a4:	eb02011f 	cmp	x8, x2
ffffff80000838a8:	381ff0a7 	sturb	w7, [x5, #-1]
ffffff80000838ac:	54000742 	b.cs	ffffff8000083994 <_ZN4core3fmt3num3imp21_$LT$impl$u20$u64$GT$10_fmt_inner17h160aed75b3a7f0e2E+0x190>  // b.hs, b.nlast
ffffff80000838b0:	1b108c88 	msub	w8, w4, w16, w3
ffffff80000838b4:	d10004c3 	sub	x3, x6, #0x1
ffffff80000838b8:	eb02007f 	cmp	x3, x2
ffffff80000838bc:	8b2825e8 	add	x8, x15, w8, uxth #1
ffffff80000838c0:	39400104 	ldrb	w4, [x8]
ffffff80000838c4:	38226964 	strb	w4, [x11, x2]
ffffff80000838c8:	54000722 	b.cs	ffffff80000839ac <_ZN4core3fmt3num3imp21_$LT$impl$u20$u64$GT$10_fmt_inner17h160aed75b3a7f0e2E+0x1a8>  // b.hs, b.nlast
ffffff80000838cc:	39400508 	ldrb	w8, [x8, #1]
ffffff80000838d0:	8b020163 	add	x3, x11, x2
ffffff80000838d4:	eb11025f 	cmp	x18, x17
ffffff80000838d8:	d1001129 	sub	x9, x9, #0x4
ffffff80000838dc:	d100116b 	sub	x11, x11, #0x4
ffffff80000838e0:	aa0a03f2 	mov	x18, x10
ffffff80000838e4:	39000468 	strb	w8, [x3, #1]
ffffff80000838e8:	54fffb68 	b.hi	ffffff8000083854 <_ZN4core3fmt3num3imp21_$LT$impl$u20$u64$GT$10_fmt_inner17h160aed75b3a7f0e2E+0x50>  // b.pmore
ffffff80000838ec:	8b090049 	add	x9, x2, x9
ffffff80000838f0:	f100255f 	cmp	x10, #0x9
ffffff80000838f4:	540002e9 	b.ls	ffffff8000083950 <_ZN4core3fmt3num3imp21_$LT$impl$u20$u64$GT$10_fmt_inner17h160aed75b3a7f0e2E+0x14c>  // b.plast
ffffff80000838f8:	d1000928 	sub	x8, x9, #0x2
ffffff80000838fc:	eb02011f 	cmp	x8, x2
ffffff8000083900:	540004a2 	b.cs	ffffff8000083994 <_ZN4core3fmt3num3imp21_$LT$impl$u20$u64$GT$10_fmt_inner17h160aed75b3a7f0e2E+0x190>  // b.hs, b.nlast
ffffff8000083904:	2a0a03eb 	mov	w11, w10
ffffff8000083908:	53023d4a 	ubfx	w10, w10, #2, #14
ffffff800008390c:	52828f6c 	mov	w12, #0x147b                	// #5243
ffffff8000083910:	d1000529 	sub	x9, x9, #0x1
ffffff8000083914:	1b0c7d4a 	mul	w10, w10, w12
ffffff8000083918:	52800c8c 	mov	w12, #0x64                  	// #100
ffffff800008391c:	eb02013f 	cmp	x9, x2
ffffff8000083920:	53117d4a 	lsr	w10, w10, #17
ffffff8000083924:	1b0cad4b 	msub	w11, w10, w12, w11
ffffff8000083928:	9000002c 	adrp	x12, ffffff8000087000 <TCR_EL1_VALUE+0x1968>
ffffff800008392c:	910e418c 	add	x12, x12, #0x390
ffffff8000083930:	8b2b258b 	add	x11, x12, w11, uxth #1
ffffff8000083934:	3940016c 	ldrb	w12, [x11]
ffffff8000083938:	3828682c 	strb	w12, [x1, x8]
ffffff800008393c:	54000542 	b.cs	ffffff80000839e4 <_ZN4core3fmt3num3imp21_$LT$impl$u20$u64$GT$10_fmt_inner17h160aed75b3a7f0e2E+0x1e0>  // b.hs, b.nlast
ffffff8000083940:	3940056b 	ldrb	w11, [x11, #1]
ffffff8000083944:	3829682b 	strb	w11, [x1, x9]
ffffff8000083948:	b5000080 	cbnz	x0, ffffff8000083958 <_ZN4core3fmt3num3imp21_$LT$impl$u20$u64$GT$10_fmt_inner17h160aed75b3a7f0e2E+0x154>
ffffff800008394c:	14000007 	b	ffffff8000083968 <_ZN4core3fmt3num3imp21_$LT$impl$u20$u64$GT$10_fmt_inner17h160aed75b3a7f0e2E+0x164>
ffffff8000083950:	aa0903e8 	mov	x8, x9
ffffff8000083954:	b40000a0 	cbz	x0, ffffff8000083968 <_ZN4core3fmt3num3imp21_$LT$impl$u20$u64$GT$10_fmt_inner17h160aed75b3a7f0e2E+0x164>
ffffff8000083958:	b500008a 	cbnz	x10, ffffff8000083968 <_ZN4core3fmt3num3imp21_$LT$impl$u20$u64$GT$10_fmt_inner17h160aed75b3a7f0e2E+0x164>
ffffff800008395c:	aa0803e0 	mov	x0, x8
ffffff8000083960:	a8c17bfd 	ldp	x29, x30, [sp], #16
ffffff8000083964:	d65f03c0 	ret
ffffff8000083968:	d1000508 	sub	x8, x8, #0x1
ffffff800008396c:	eb02011f 	cmp	x8, x2
ffffff8000083970:	54000122 	b.cs	ffffff8000083994 <_ZN4core3fmt3num3imp21_$LT$impl$u20$u64$GT$10_fmt_inner17h160aed75b3a7f0e2E+0x190>  // b.hs, b.nlast
ffffff8000083974:	90000029 	adrp	x9, ffffff8000087000 <TCR_EL1_VALUE+0x1968>
ffffff8000083978:	910e4129 	add	x9, x9, #0x390
ffffff800008397c:	8b0a0529 	add	x9, x9, x10, lsl #1
ffffff8000083980:	39400529 	ldrb	w9, [x9, #1]
ffffff8000083984:	38286829 	strb	w9, [x1, x8]
ffffff8000083988:	aa0803e0 	mov	x0, x8
ffffff800008398c:	a8c17bfd 	ldp	x29, x30, [sp], #16
ffffff8000083990:	d65f03c0 	ret
ffffff8000083994:	90000029 	adrp	x9, ffffff8000087000 <TCR_EL1_VALUE+0x1968>
ffffff8000083998:	91116129 	add	x9, x9, #0x458
ffffff800008399c:	aa0803e0 	mov	x0, x8
ffffff80000839a0:	aa0203e1 	mov	x1, x2
ffffff80000839a4:	aa0903e2 	mov	x2, x9
ffffff80000839a8:	94000657 	bl	ffffff8000085304 <_ZN4core9panicking18panic_bounds_check17h210ff946a1327b86E>
ffffff80000839ac:	8b090048 	add	x8, x2, x9
ffffff80000839b0:	d1000500 	sub	x0, x8, #0x1
ffffff80000839b4:	90000028 	adrp	x8, ffffff8000087000 <TCR_EL1_VALUE+0x1968>
ffffff80000839b8:	91116108 	add	x8, x8, #0x458
ffffff80000839bc:	aa0203e1 	mov	x1, x2
ffffff80000839c0:	aa0803e2 	mov	x2, x8
ffffff80000839c4:	94000650 	bl	ffffff8000085304 <_ZN4core9panicking18panic_bounds_check17h210ff946a1327b86E>
ffffff80000839c8:	8b090048 	add	x8, x2, x9
ffffff80000839cc:	d1000d00 	sub	x0, x8, #0x3
ffffff80000839d0:	90000028 	adrp	x8, ffffff8000087000 <TCR_EL1_VALUE+0x1968>
ffffff80000839d4:	91116108 	add	x8, x8, #0x458
ffffff80000839d8:	aa0203e1 	mov	x1, x2
ffffff80000839dc:	aa0803e2 	mov	x2, x8
ffffff80000839e0:	94000649 	bl	ffffff8000085304 <_ZN4core9panicking18panic_bounds_check17h210ff946a1327b86E>
ffffff80000839e4:	90000028 	adrp	x8, ffffff8000087000 <TCR_EL1_VALUE+0x1968>
ffffff80000839e8:	91116108 	add	x8, x8, #0x458
ffffff80000839ec:	aa0903e0 	mov	x0, x9
ffffff80000839f0:	aa0203e1 	mov	x1, x2
ffffff80000839f4:	aa0803e2 	mov	x2, x8
ffffff80000839f8:	94000643 	bl	ffffff8000085304 <_ZN4core9panicking18panic_bounds_check17h210ff946a1327b86E>

ffffff80000839fc <_ZN4core3fmt3num3imp51_$LT$impl$u20$core..fmt..Display$u20$for$u20$u8$GT$3fmt17h612d5822ae5469e7E>:
ffffff80000839fc:	d10083ff 	sub	sp, sp, #0x20
ffffff8000083a00:	a9017bfd 	stp	x29, x30, [sp, #16]
ffffff8000083a04:	910043fd 	add	x29, sp, #0x10
ffffff8000083a08:	3940000a 	ldrb	w10, [x0]
ffffff8000083a0c:	90000029 	adrp	x9, ffffff8000087000 <TCR_EL1_VALUE+0x1968>
ffffff8000083a10:	910e4129 	add	x9, x9, #0x390
ffffff8000083a14:	7100295f 	cmp	w10, #0xa
ffffff8000083a18:	540001c3 	b.cc	ffffff8000083a50 <_ZN4core3fmt3num3imp51_$LT$impl$u20$core..fmt..Display$u20$for$u20$u8$GT$3fmt17h612d5822ae5469e7E+0x54>  // b.lo, b.ul, b.last
ffffff8000083a1c:	52800528 	mov	w8, #0x29                  	// #41
ffffff8000083a20:	1b087d48 	mul	w8, w10, w8
ffffff8000083a24:	530c7d0b 	lsr	w11, w8, #12
ffffff8000083a28:	52800c88 	mov	w8, #0x64                  	// #100
ffffff8000083a2c:	1b08a968 	msub	w8, w11, w8, w10
ffffff8000083a30:	8b280528 	add	x8, x9, w8, uxtb #1
ffffff8000083a34:	3940010c 	ldrb	w12, [x8]
ffffff8000083a38:	39400508 	ldrb	w8, [x8, #1]
ffffff8000083a3c:	381ff3a8 	sturb	w8, [x29, #-1]
ffffff8000083a40:	52800028 	mov	w8, #0x1                   	// #1
ffffff8000083a44:	381fe3ac 	sturb	w12, [x29, #-2]
ffffff8000083a48:	350000aa 	cbnz	w10, ffffff8000083a5c <_ZN4core3fmt3num3imp51_$LT$impl$u20$core..fmt..Display$u20$for$u20$u8$GT$3fmt17h612d5822ae5469e7E+0x60>
ffffff8000083a4c:	14000005 	b	ffffff8000083a60 <_ZN4core3fmt3num3imp51_$LT$impl$u20$core..fmt..Display$u20$for$u20$u8$GT$3fmt17h612d5822ae5469e7E+0x64>
ffffff8000083a50:	52800068 	mov	w8, #0x3                   	// #3
ffffff8000083a54:	2a0a03eb 	mov	w11, w10
ffffff8000083a58:	3400004a 	cbz	w10, ffffff8000083a60 <_ZN4core3fmt3num3imp51_$LT$impl$u20$core..fmt..Display$u20$for$u20$u8$GT$3fmt17h612d5822ae5469e7E+0x64>
ffffff8000083a5c:	340000eb 	cbz	w11, ffffff8000083a78 <_ZN4core3fmt3num3imp51_$LT$impl$u20$core..fmt..Display$u20$for$u20$u8$GT$3fmt17h612d5822ae5469e7E+0x7c>
ffffff8000083a60:	d37f196a 	ubfiz	x10, x11, #1, #7
ffffff8000083a64:	d1000508 	sub	x8, x8, #0x1
ffffff8000083a68:	8b0a0129 	add	x9, x9, x10
ffffff8000083a6c:	d1000faa 	sub	x10, x29, #0x3
ffffff8000083a70:	39400529 	ldrb	w9, [x9, #1]
ffffff8000083a74:	38286949 	strb	w9, [x10, x8]
ffffff8000083a78:	52800069 	mov	w9, #0x3                   	// #3
ffffff8000083a7c:	aa0103e0 	mov	x0, x1
ffffff8000083a80:	52800021 	mov	w1, #0x1                   	// #1
ffffff8000083a84:	cb080125 	sub	x5, x9, x8
ffffff8000083a88:	d1000fa9 	sub	x9, x29, #0x3
ffffff8000083a8c:	52800022 	mov	w2, #0x1                   	// #1
ffffff8000083a90:	8b080124 	add	x4, x9, x8
ffffff8000083a94:	aa1f03e3 	mov	x3, xzr
ffffff8000083a98:	94000152 	bl	ffffff8000083fe0 <_ZN4core3fmt9Formatter12pad_integral17h3794e58e22a1883aE>
ffffff8000083a9c:	a9417bfd 	ldp	x29, x30, [sp, #16]
ffffff8000083aa0:	910083ff 	add	sp, sp, #0x20
ffffff8000083aa4:	d65f03c0 	ret

ffffff8000083aa8 <_ZN4core3fmt3num3imp52_$LT$impl$u20$core..fmt..Display$u20$for$u20$u16$GT$3fmt17hd0bbb3e7364c056dE>:
ffffff8000083aa8:	d10083ff 	sub	sp, sp, #0x20
ffffff8000083aac:	a9017bfd 	stp	x29, x30, [sp, #16]
ffffff8000083ab0:	910043fd 	add	x29, sp, #0x10
ffffff8000083ab4:	79400009 	ldrh	w9, [x0]
ffffff8000083ab8:	90000028 	adrp	x8, ffffff8000087000 <TCR_EL1_VALUE+0x1968>
ffffff8000083abc:	910e4108 	add	x8, x8, #0x390
ffffff8000083ac0:	710f9d3f 	cmp	w9, #0x3e7
ffffff8000083ac4:	54000249 	b.ls	ffffff8000083b0c <_ZN4core3fmt3num3imp52_$LT$impl$u20$core..fmt..Display$u20$for$u20$u16$GT$3fmt17hd0bbb3e7364c056dE+0x64>  // b.plast
ffffff8000083ac8:	53047d2a 	lsr	w10, w9, #4
ffffff8000083acc:	528068eb 	mov	w11, #0x347                 	// #839
ffffff8000083ad0:	52828f6d 	mov	w13, #0x147b                	// #5243
ffffff8000083ad4:	1b0b7d4a 	mul	w10, w10, w11
ffffff8000083ad8:	53137d4b 	lsr	w11, w10, #19
ffffff8000083adc:	5284e20a 	mov	w10, #0x2710                	// #10000
ffffff8000083ae0:	1b0aa56c 	msub	w12, w11, w10, w9
ffffff8000083ae4:	53023d8a 	ubfx	w10, w12, #2, #14
ffffff8000083ae8:	1b0d7d4a 	mul	w10, w10, w13
ffffff8000083aec:	53117d4a 	lsr	w10, w10, #17
ffffff8000083af0:	8b2a450a 	add	x10, x8, w10, uxtw #1
ffffff8000083af4:	3940014d 	ldrb	w13, [x10]
ffffff8000083af8:	3940054a 	ldrb	w10, [x10, #1]
ffffff8000083afc:	381fc3ad 	sturb	w13, [x29, #-4]
ffffff8000083b00:	381fd3aa 	sturb	w10, [x29, #-3]
ffffff8000083b04:	5280002a 	mov	w10, #0x1                   	// #1
ffffff8000083b08:	14000009 	b	ffffff8000083b2c <_ZN4core3fmt3num3imp52_$LT$impl$u20$core..fmt..Display$u20$for$u20$u16$GT$3fmt17hd0bbb3e7364c056dE+0x84>
ffffff8000083b0c:	7100293f 	cmp	w9, #0xa
ffffff8000083b10:	54000283 	b.cc	ffffff8000083b60 <_ZN4core3fmt3num3imp52_$LT$impl$u20$core..fmt..Display$u20$for$u20$u16$GT$3fmt17hd0bbb3e7364c056dE+0xb8>  // b.lo, b.ul, b.last
ffffff8000083b14:	53027d2a 	lsr	w10, w9, #2
ffffff8000083b18:	52828f6b 	mov	w11, #0x147b                	// #5243
ffffff8000083b1c:	2a0903ec 	mov	w12, w9
ffffff8000083b20:	1b0b7d4a 	mul	w10, w10, w11
ffffff8000083b24:	53117d4b 	lsr	w11, w10, #17
ffffff8000083b28:	5280006a 	mov	w10, #0x3                   	// #3
ffffff8000083b2c:	53023d8d 	ubfx	w13, w12, #2, #14
ffffff8000083b30:	52828f6e 	mov	w14, #0x147b                	// #5243
ffffff8000083b34:	1b0e7dad 	mul	w13, w13, w14
ffffff8000083b38:	52800c8e 	mov	w14, #0x64                  	// #100
ffffff8000083b3c:	53117dad 	lsr	w13, w13, #17
ffffff8000083b40:	1b0eb1ac 	msub	w12, w13, w14, w12
ffffff8000083b44:	8b2c250c 	add	x12, x8, w12, uxth #1
ffffff8000083b48:	3940018d 	ldrb	w13, [x12]
ffffff8000083b4c:	3940058c 	ldrb	w12, [x12, #1]
ffffff8000083b50:	381fe3ad 	sturb	w13, [x29, #-2]
ffffff8000083b54:	381ff3ac 	sturb	w12, [x29, #-1]
ffffff8000083b58:	350000a9 	cbnz	w9, ffffff8000083b6c <_ZN4core3fmt3num3imp52_$LT$impl$u20$core..fmt..Display$u20$for$u20$u16$GT$3fmt17hd0bbb3e7364c056dE+0xc4>
ffffff8000083b5c:	14000005 	b	ffffff8000083b70 <_ZN4core3fmt3num3imp52_$LT$impl$u20$core..fmt..Display$u20$for$u20$u16$GT$3fmt17hd0bbb3e7364c056dE+0xc8>
ffffff8000083b60:	528000aa 	mov	w10, #0x5                   	// #5
ffffff8000083b64:	2a0903eb 	mov	w11, w9
ffffff8000083b68:	34000049 	cbz	w9, ffffff8000083b70 <_ZN4core3fmt3num3imp52_$LT$impl$u20$core..fmt..Display$u20$for$u20$u16$GT$3fmt17hd0bbb3e7364c056dE+0xc8>
ffffff8000083b6c:	340000eb 	cbz	w11, ffffff8000083b88 <_ZN4core3fmt3num3imp52_$LT$impl$u20$core..fmt..Display$u20$for$u20$u16$GT$3fmt17hd0bbb3e7364c056dE+0xe0>
ffffff8000083b70:	d37f3969 	ubfiz	x9, x11, #1, #15
ffffff8000083b74:	d100054a 	sub	x10, x10, #0x1
ffffff8000083b78:	8b090108 	add	x8, x8, x9
ffffff8000083b7c:	d10017a9 	sub	x9, x29, #0x5
ffffff8000083b80:	39400508 	ldrb	w8, [x8, #1]
ffffff8000083b84:	382a6928 	strb	w8, [x9, x10]
ffffff8000083b88:	528000a8 	mov	w8, #0x5                   	// #5
ffffff8000083b8c:	aa0103e0 	mov	x0, x1
ffffff8000083b90:	52800021 	mov	w1, #0x1                   	// #1
ffffff8000083b94:	cb0a0105 	sub	x5, x8, x10
ffffff8000083b98:	d10017a8 	sub	x8, x29, #0x5
ffffff8000083b9c:	52800022 	mov	w2, #0x1                   	// #1
ffffff8000083ba0:	8b0a0104 	add	x4, x8, x10
ffffff8000083ba4:	aa1f03e3 	mov	x3, xzr
ffffff8000083ba8:	9400010e 	bl	ffffff8000083fe0 <_ZN4core3fmt9Formatter12pad_integral17h3794e58e22a1883aE>
ffffff8000083bac:	a9417bfd 	ldp	x29, x30, [sp, #16]
ffffff8000083bb0:	910083ff 	add	sp, sp, #0x20
ffffff8000083bb4:	d65f03c0 	ret

ffffff8000083bb8 <_ZN4core3fmt3num3imp52_$LT$impl$u20$core..fmt..Display$u20$for$u20$u32$GT$3fmt17haa8f8988b8f1c14bE>:
ffffff8000083bb8:	d10103ff 	sub	sp, sp, #0x40
ffffff8000083bbc:	a9017bfd 	stp	x29, x30, [sp, #16]
ffffff8000083bc0:	f90013f5 	str	x21, [sp, #32]
ffffff8000083bc4:	a9034ff4 	stp	x20, x19, [sp, #48]
ffffff8000083bc8:	910043fd 	add	x29, sp, #0x10
ffffff8000083bcc:	b9400000 	ldr	w0, [x0]
ffffff8000083bd0:	aa0103f3 	mov	x19, x1
ffffff8000083bd4:	91001be1 	add	x1, sp, #0x6
ffffff8000083bd8:	52800142 	mov	w2, #0xa                   	// #10
ffffff8000083bdc:	52800154 	mov	w20, #0xa                   	// #10
ffffff8000083be0:	91001bf5 	add	x21, sp, #0x6
ffffff8000083be4:	97fffe8b 	bl	ffffff8000083610 <_ZN4core3fmt3num3imp21_$LT$impl$u20$u32$GT$10_fmt_inner17h32293f8b061dea48E>
ffffff8000083be8:	cb000285 	sub	x5, x20, x0
ffffff8000083bec:	8b0002a4 	add	x4, x21, x0
ffffff8000083bf0:	aa1303e0 	mov	x0, x19
ffffff8000083bf4:	52800021 	mov	w1, #0x1                   	// #1
ffffff8000083bf8:	52800022 	mov	w2, #0x1                   	// #1
ffffff8000083bfc:	aa1f03e3 	mov	x3, xzr
ffffff8000083c00:	940000f8 	bl	ffffff8000083fe0 <_ZN4core3fmt9Formatter12pad_integral17h3794e58e22a1883aE>
ffffff8000083c04:	a9434ff4 	ldp	x20, x19, [sp, #48]
ffffff8000083c08:	f94013f5 	ldr	x21, [sp, #32]
ffffff8000083c0c:	a9417bfd 	ldp	x29, x30, [sp, #16]
ffffff8000083c10:	910103ff 	add	sp, sp, #0x40
ffffff8000083c14:	d65f03c0 	ret

ffffff8000083c18 <_ZN4core3fmt3num3imp52_$LT$impl$u20$core..fmt..Display$u20$for$u20$u64$GT$3fmt17habbc1d4a68f4ded1E>:
ffffff8000083c18:	d10143ff 	sub	sp, sp, #0x50
ffffff8000083c1c:	a9027bfd 	stp	x29, x30, [sp, #32]
ffffff8000083c20:	f9001bf5 	str	x21, [sp, #48]
ffffff8000083c24:	a9044ff4 	stp	x20, x19, [sp, #64]
ffffff8000083c28:	910083fd 	add	x29, sp, #0x20
ffffff8000083c2c:	f9400000 	ldr	x0, [x0]
ffffff8000083c30:	aa0103f3 	mov	x19, x1
ffffff8000083c34:	910033e1 	add	x1, sp, #0xc
ffffff8000083c38:	52800282 	mov	w2, #0x14                  	// #20
ffffff8000083c3c:	52800294 	mov	w20, #0x14                  	// #20
ffffff8000083c40:	910033f5 	add	x21, sp, #0xc
ffffff8000083c44:	97fffef0 	bl	ffffff8000083804 <_ZN4core3fmt3num3imp21_$LT$impl$u20$u64$GT$10_fmt_inner17h160aed75b3a7f0e2E>
ffffff8000083c48:	cb000285 	sub	x5, x20, x0
ffffff8000083c4c:	8b0002a4 	add	x4, x21, x0
ffffff8000083c50:	aa1303e0 	mov	x0, x19
ffffff8000083c54:	52800021 	mov	w1, #0x1                   	// #1
ffffff8000083c58:	52800022 	mov	w2, #0x1                   	// #1
ffffff8000083c5c:	aa1f03e3 	mov	x3, xzr
ffffff8000083c60:	940000e0 	bl	ffffff8000083fe0 <_ZN4core3fmt9Formatter12pad_integral17h3794e58e22a1883aE>
ffffff8000083c64:	a9444ff4 	ldp	x20, x19, [sp, #64]
ffffff8000083c68:	f9401bf5 	ldr	x21, [sp, #48]
ffffff8000083c6c:	a9427bfd 	ldp	x29, x30, [sp, #32]
ffffff8000083c70:	910143ff 	add	sp, sp, #0x50
ffffff8000083c74:	d65f03c0 	ret

ffffff8000083c78 <_ZN4core3fmt3num53_$LT$impl$u20$core..fmt..LowerHex$u20$for$u20$u32$GT$3fmt17hd391da6d82931cceE>:
ffffff8000083c78:	d10083ff 	sub	sp, sp, #0x20
ffffff8000083c7c:	a9017bfd 	stp	x29, x30, [sp, #16]
ffffff8000083c80:	910043fd 	add	x29, sp, #0x10
ffffff8000083c84:	b940000a 	ldr	w10, [x0]
ffffff8000083c88:	aa1f03e8 	mov	x8, xzr
ffffff8000083c8c:	910023e9 	add	x9, sp, #0x8
ffffff8000083c90:	9000002b 	adrp	x11, ffffff8000087000 <TCR_EL1_VALUE+0x1968>
ffffff8000083c94:	910d816b 	add	x11, x11, #0x360
ffffff8000083c98:	92400d4c 	and	x12, x10, #0xf
ffffff8000083c9c:	53047d4d 	lsr	w13, w10, #4
ffffff8000083ca0:	71003d5f 	cmp	w10, #0xf
ffffff8000083ca4:	386c696c 	ldrb	w12, [x11, x12]
ffffff8000083ca8:	8b08012a 	add	x10, x9, x8
ffffff8000083cac:	d1000508 	sub	x8, x8, #0x1
ffffff8000083cb0:	39001d4c 	strb	w12, [x10, #7]
ffffff8000083cb4:	2a0d03ea 	mov	w10, w13
ffffff8000083cb8:	54ffff08 	b.hi	ffffff8000083c98 <_ZN4core3fmt3num53_$LT$impl$u20$core..fmt..LowerHex$u20$for$u20$u32$GT$3fmt17hd391da6d82931cceE+0x20>  // b.pmore
ffffff8000083cbc:	910023e9 	add	x9, sp, #0x8
ffffff8000083cc0:	cb0803e5 	neg	x5, x8
ffffff8000083cc4:	90000022 	adrp	x2, ffffff8000087000 <TCR_EL1_VALUE+0x1968>
ffffff8000083cc8:	9111c042 	add	x2, x2, #0x470
ffffff8000083ccc:	8b080129 	add	x9, x9, x8
ffffff8000083cd0:	aa0103e0 	mov	x0, x1
ffffff8000083cd4:	91002124 	add	x4, x9, #0x8
ffffff8000083cd8:	52800021 	mov	w1, #0x1                   	// #1
ffffff8000083cdc:	52800043 	mov	w3, #0x2                   	// #2
ffffff8000083ce0:	940000c0 	bl	ffffff8000083fe0 <_ZN4core3fmt9Formatter12pad_integral17h3794e58e22a1883aE>
ffffff8000083ce4:	a9417bfd 	ldp	x29, x30, [sp, #16]
ffffff8000083ce8:	910083ff 	add	sp, sp, #0x20
ffffff8000083cec:	d65f03c0 	ret

ffffff8000083cf0 <_ZN4core3fmt3num53_$LT$impl$u20$core..fmt..LowerHex$u20$for$u20$u64$GT$3fmt17h159697527b1d5f97E>:
ffffff8000083cf0:	d10083ff 	sub	sp, sp, #0x20
ffffff8000083cf4:	a9017bfd 	stp	x29, x30, [sp, #16]
ffffff8000083cf8:	910043fd 	add	x29, sp, #0x10
ffffff8000083cfc:	f940000b 	ldr	x11, [x0]
ffffff8000083d00:	aa1f03e8 	mov	x8, xzr
ffffff8000083d04:	910003e9 	mov	x9, sp
ffffff8000083d08:	9000002a 	adrp	x10, ffffff8000087000 <TCR_EL1_VALUE+0x1968>
ffffff8000083d0c:	910d814a 	add	x10, x10, #0x360
ffffff8000083d10:	92400d6c 	and	x12, x11, #0xf
ffffff8000083d14:	d344fd6d 	lsr	x13, x11, #4
ffffff8000083d18:	f1003d7f 	cmp	x11, #0xf
ffffff8000083d1c:	386c694c 	ldrb	w12, [x10, x12]
ffffff8000083d20:	8b08012b 	add	x11, x9, x8
ffffff8000083d24:	d1000508 	sub	x8, x8, #0x1
ffffff8000083d28:	39003d6c 	strb	w12, [x11, #15]
ffffff8000083d2c:	aa0d03eb 	mov	x11, x13
ffffff8000083d30:	54ffff08 	b.hi	ffffff8000083d10 <_ZN4core3fmt3num53_$LT$impl$u20$core..fmt..LowerHex$u20$for$u20$u64$GT$3fmt17h159697527b1d5f97E+0x20>  // b.pmore
ffffff8000083d34:	910003e9 	mov	x9, sp
ffffff8000083d38:	cb0803e5 	neg	x5, x8
ffffff8000083d3c:	90000022 	adrp	x2, ffffff8000087000 <TCR_EL1_VALUE+0x1968>
ffffff8000083d40:	9111c042 	add	x2, x2, #0x470
ffffff8000083d44:	8b080129 	add	x9, x9, x8
ffffff8000083d48:	aa0103e0 	mov	x0, x1
ffffff8000083d4c:	91004124 	add	x4, x9, #0x10
ffffff8000083d50:	52800021 	mov	w1, #0x1                   	// #1
ffffff8000083d54:	52800043 	mov	w3, #0x2                   	// #2
ffffff8000083d58:	940000a2 	bl	ffffff8000083fe0 <_ZN4core3fmt9Formatter12pad_integral17h3794e58e22a1883aE>
ffffff8000083d5c:	a9417bfd 	ldp	x29, x30, [sp, #16]
ffffff8000083d60:	910083ff 	add	sp, sp, #0x20
ffffff8000083d64:	d65f03c0 	ret

ffffff8000083d68 <_ZN4core3fmt5write17h4e09d17c17eebf64E>:
ffffff8000083d68:	d101c3ff 	sub	sp, sp, #0x70
ffffff8000083d6c:	a9027bfd 	stp	x29, x30, [sp, #32]
ffffff8000083d70:	a90367fa 	stp	x26, x25, [sp, #48]
ffffff8000083d74:	a9045ff8 	stp	x24, x23, [sp, #64]
ffffff8000083d78:	a90557f6 	stp	x22, x21, [sp, #80]
ffffff8000083d7c:	a9064ff4 	stp	x20, x19, [sp, #96]
ffffff8000083d80:	910083fd 	add	x29, sp, #0x20
ffffff8000083d84:	aa0303f3 	mov	x19, x3
ffffff8000083d88:	aa0103f5 	mov	x21, x1
ffffff8000083d8c:	aa0003f4 	mov	x20, x0
ffffff8000083d90:	37000b93 	tbnz	w19, #0, ffffff8000083f00 <_ZN4core3fmt5write17h4e09d17c17eebf64E+0x198>
ffffff8000083d94:	39400048 	ldrb	w8, [x2]
ffffff8000083d98:	34000cc8 	cbz	w8, ffffff8000083f30 <_ZN4core3fmt5write17h4e09d17c17eebf64E+0x1c8>
ffffff8000083d9c:	f9400eb8 	ldr	x24, [x21, #24]
ffffff8000083da0:	5280041a 	mov	w26, #0x20                  	// #32
ffffff8000083da4:	aa1f03f9 	mov	x25, xzr
ffffff8000083da8:	72ac001a 	movk	w26, #0x6000, lsl #16
ffffff8000083dac:	1400000c 	b	ffffff8000083ddc <_ZN4core3fmt5write17h4e09d17c17eebf64E+0x74>
ffffff8000083db0:	8b191268 	add	x8, x19, x25, lsl #4
ffffff8000083db4:	910023e1 	add	x1, sp, #0x8
ffffff8000083db8:	a9016bf5 	stp	x21, x26, [sp, #16]
ffffff8000083dbc:	f90007f4 	str	x20, [sp, #8]
ffffff8000083dc0:	a9402100 	ldp	x0, x8, [x8]
ffffff8000083dc4:	d63f0100 	blr	x8
ffffff8000083dc8:	37000b80 	tbnz	w0, #0, ffffff8000083f38 <_ZN4core3fmt5write17h4e09d17c17eebf64E+0x1d0>
ffffff8000083dcc:	91000739 	add	x25, x25, #0x1
ffffff8000083dd0:	394002c8 	ldrb	w8, [x22]
ffffff8000083dd4:	aa1603e2 	mov	x2, x22
ffffff8000083dd8:	34000ac8 	cbz	w8, ffffff8000083f30 <_ZN4core3fmt5write17h4e09d17c17eebf64E+0x1c8>
ffffff8000083ddc:	91000456 	add	x22, x2, #0x1
ffffff8000083de0:	37380128 	tbnz	w8, #7, ffffff8000083e04 <_ZN4core3fmt5write17h4e09d17c17eebf64E+0x9c>
ffffff8000083de4:	2a0803f7 	mov	w23, w8
ffffff8000083de8:	aa1403e0 	mov	x0, x20
ffffff8000083dec:	aa1603e1 	mov	x1, x22
ffffff8000083df0:	aa1703e2 	mov	x2, x23
ffffff8000083df4:	d63f0300 	blr	x24
ffffff8000083df8:	37000a00 	tbnz	w0, #0, ffffff8000083f38 <_ZN4core3fmt5write17h4e09d17c17eebf64E+0x1d0>
ffffff8000083dfc:	8b1702d6 	add	x22, x22, x23
ffffff8000083e00:	17fffff4 	b	ffffff8000083dd0 <_ZN4core3fmt5write17h4e09d17c17eebf64E+0x68>
ffffff8000083e04:	7102011f 	cmp	w8, #0x80
ffffff8000083e08:	54000200 	b.eq	ffffff8000083e48 <_ZN4core3fmt5write17h4e09d17c17eebf64E+0xe0>  // b.none
ffffff8000083e0c:	7103011f 	cmp	w8, #0xc0
ffffff8000083e10:	54fffd00 	b.eq	ffffff8000083db0 <_ZN4core3fmt5write17h4e09d17c17eebf64E+0x48>  // b.none
ffffff8000083e14:	37000308 	tbnz	w8, #0, ffffff8000083e74 <_ZN4core3fmt5write17h4e09d17c17eebf64E+0x10c>
ffffff8000083e18:	52800409 	mov	w9, #0x20                  	// #32
ffffff8000083e1c:	72ac0009 	movk	w9, #0x6000, lsl #16
ffffff8000083e20:	360803e8 	tbz	w8, #1, ffffff8000083e9c <_ZN4core3fmt5write17h4e09d17c17eebf64E+0x134>
ffffff8000083e24:	394006ca 	ldrb	w10, [x22, #1]
ffffff8000083e28:	384026cb 	ldrb	w11, [x22], #2
ffffff8000083e2c:	aa0a216a 	orr	x10, x11, x10, lsl #8
ffffff8000083e30:	361003a8 	tbz	w8, #2, ffffff8000083ea4 <_ZN4core3fmt5write17h4e09d17c17eebf64E+0x13c>
ffffff8000083e34:	394006cb 	ldrb	w11, [x22, #1]
ffffff8000083e38:	384026cc 	ldrb	w12, [x22], #2
ffffff8000083e3c:	aa0b218b 	orr	x11, x12, x11, lsl #8
ffffff8000083e40:	37180368 	tbnz	w8, #3, ffffff8000083eac <_ZN4core3fmt5write17h4e09d17c17eebf64E+0x144>
ffffff8000083e44:	1400001d 	b	ffffff8000083eb8 <_ZN4core3fmt5write17h4e09d17c17eebf64E+0x150>
ffffff8000083e48:	39400848 	ldrb	w8, [x2, #2]
ffffff8000083e4c:	39400449 	ldrb	w9, [x2, #1]
ffffff8000083e50:	91000c57 	add	x23, x2, #0x3
ffffff8000083e54:	aa1403e0 	mov	x0, x20
ffffff8000083e58:	aa1703e1 	mov	x1, x23
ffffff8000083e5c:	aa082136 	orr	x22, x9, x8, lsl #8
ffffff8000083e60:	aa1603e2 	mov	x2, x22
ffffff8000083e64:	d63f0300 	blr	x24
ffffff8000083e68:	37000680 	tbnz	w0, #0, ffffff8000083f38 <_ZN4core3fmt5write17h4e09d17c17eebf64E+0x1d0>
ffffff8000083e6c:	8b1602f6 	add	x22, x23, x22
ffffff8000083e70:	17ffffd8 	b	ffffff8000083dd0 <_ZN4core3fmt5write17h4e09d17c17eebf64E+0x68>
ffffff8000083e74:	38401c49 	ldrb	w9, [x2, #1]!
ffffff8000083e78:	3940084a 	ldrb	w10, [x2, #2]
ffffff8000083e7c:	3940044b 	ldrb	w11, [x2, #1]
ffffff8000083e80:	39400c4c 	ldrb	w12, [x2, #3]
ffffff8000083e84:	91001056 	add	x22, x2, #0x4
ffffff8000083e88:	53103d4a 	lsl	w10, w10, #16
ffffff8000083e8c:	2a0b2129 	orr	w9, w9, w11, lsl #8
ffffff8000083e90:	2a0c614a 	orr	w10, w10, w12, lsl #24
ffffff8000083e94:	2a090149 	orr	w9, w10, w9
ffffff8000083e98:	370ffc68 	tbnz	w8, #1, ffffff8000083e24 <_ZN4core3fmt5write17h4e09d17c17eebf64E+0xbc>
ffffff8000083e9c:	aa1f03ea 	mov	x10, xzr
ffffff8000083ea0:	3717fca8 	tbnz	w8, #2, ffffff8000083e34 <_ZN4core3fmt5write17h4e09d17c17eebf64E+0xcc>
ffffff8000083ea4:	aa1f03eb 	mov	x11, xzr
ffffff8000083ea8:	36180088 	tbz	w8, #3, ffffff8000083eb8 <_ZN4core3fmt5write17h4e09d17c17eebf64E+0x150>
ffffff8000083eac:	394006cc 	ldrb	w12, [x22, #1]
ffffff8000083eb0:	384026cd 	ldrb	w13, [x22], #2
ffffff8000083eb4:	aa0c21b9 	orr	x25, x13, x12, lsl #8
ffffff8000083eb8:	372001c8 	tbnz	w8, #4, ffffff8000083ef0 <_ZN4core3fmt5write17h4e09d17c17eebf64E+0x188>
ffffff8000083ebc:	36280068 	tbz	w8, #5, ffffff8000083ec8 <_ZN4core3fmt5write17h4e09d17c17eebf64E+0x160>
ffffff8000083ec0:	8b0b1268 	add	x8, x19, x11, lsl #4
ffffff8000083ec4:	7940110b 	ldrh	w11, [x8, #8]
ffffff8000083ec8:	8b191268 	add	x8, x19, x25, lsl #4
ffffff8000083ecc:	910023e1 	add	x1, sp, #0x8
ffffff8000083ed0:	b9001be9 	str	w9, [sp, #24]
ffffff8000083ed4:	79003bea 	strh	w10, [sp, #28]
ffffff8000083ed8:	a9402100 	ldp	x0, x8, [x8]
ffffff8000083edc:	79003feb 	strh	w11, [sp, #30]
ffffff8000083ee0:	a900d7f4 	stp	x20, x21, [sp, #8]
ffffff8000083ee4:	d63f0100 	blr	x8
ffffff8000083ee8:	3607f720 	tbz	w0, #0, ffffff8000083dcc <_ZN4core3fmt5write17h4e09d17c17eebf64E+0x64>
ffffff8000083eec:	14000013 	b	ffffff8000083f38 <_ZN4core3fmt5write17h4e09d17c17eebf64E+0x1d0>
ffffff8000083ef0:	8b0a126a 	add	x10, x19, x10, lsl #4
ffffff8000083ef4:	7940114a 	ldrh	w10, [x10, #8]
ffffff8000083ef8:	372ffe48 	tbnz	w8, #5, ffffff8000083ec0 <_ZN4core3fmt5write17h4e09d17c17eebf64E+0x158>
ffffff8000083efc:	17fffff3 	b	ffffff8000083ec8 <_ZN4core3fmt5write17h4e09d17c17eebf64E+0x160>
ffffff8000083f00:	d341fe68 	lsr	x8, x19, #1
ffffff8000083f04:	f9400ea3 	ldr	x3, [x21, #24]
ffffff8000083f08:	aa1403e0 	mov	x0, x20
ffffff8000083f0c:	aa0203e1 	mov	x1, x2
ffffff8000083f10:	aa0803e2 	mov	x2, x8
ffffff8000083f14:	a9464ff4 	ldp	x20, x19, [sp, #96]
ffffff8000083f18:	a94557f6 	ldp	x22, x21, [sp, #80]
ffffff8000083f1c:	a9445ff8 	ldp	x24, x23, [sp, #64]
ffffff8000083f20:	a94367fa 	ldp	x26, x25, [sp, #48]
ffffff8000083f24:	a9427bfd 	ldp	x29, x30, [sp, #32]
ffffff8000083f28:	9101c3ff 	add	sp, sp, #0x70
ffffff8000083f2c:	d61f0060 	br	x3
ffffff8000083f30:	2a1f03e0 	mov	w0, wzr
ffffff8000083f34:	14000002 	b	ffffff8000083f3c <_ZN4core3fmt5write17h4e09d17c17eebf64E+0x1d4>
ffffff8000083f38:	52800020 	mov	w0, #0x1                   	// #1
ffffff8000083f3c:	a9464ff4 	ldp	x20, x19, [sp, #96]
ffffff8000083f40:	a94557f6 	ldp	x22, x21, [sp, #80]
ffffff8000083f44:	a9445ff8 	ldp	x24, x23, [sp, #64]
ffffff8000083f48:	a94367fa 	ldp	x26, x25, [sp, #48]
ffffff8000083f4c:	a9427bfd 	ldp	x29, x30, [sp, #32]
ffffff8000083f50:	9101c3ff 	add	sp, sp, #0x70
ffffff8000083f54:	d65f03c0 	ret

ffffff8000083f58 <_ZN4core3fmt9Formatter12pad_integral12write_prefix17hd51b9bff46c071cbE>:
ffffff8000083f58:	a9bd7bfd 	stp	x29, x30, [sp, #-48]!
ffffff8000083f5c:	a90157f6 	stp	x22, x21, [sp, #16]
ffffff8000083f60:	a9024ff4 	stp	x20, x19, [sp, #32]
ffffff8000083f64:	910003fd 	mov	x29, sp
ffffff8000083f68:	aa0403f3 	mov	x19, x4
ffffff8000083f6c:	aa0303f4 	mov	x20, x3
ffffff8000083f70:	aa0103f5 	mov	x21, x1
ffffff8000083f74:	7144405f 	cmp	w2, #0x110, lsl #12
ffffff8000083f78:	540001a0 	b.eq	ffffff8000083fac <_ZN4core3fmt9Formatter12pad_integral12write_prefix17hd51b9bff46c071cbE+0x54>  // b.none
ffffff8000083f7c:	f94012a8 	ldr	x8, [x21, #32]
ffffff8000083f80:	2a0203e1 	mov	w1, w2
ffffff8000083f84:	aa0003f6 	mov	x22, x0
ffffff8000083f88:	d63f0100 	blr	x8
ffffff8000083f8c:	2a0003e8 	mov	w8, w0
ffffff8000083f90:	aa1603e0 	mov	x0, x22
ffffff8000083f94:	360000c8 	tbz	w8, #0, ffffff8000083fac <_ZN4core3fmt9Formatter12pad_integral12write_prefix17hd51b9bff46c071cbE+0x54>
ffffff8000083f98:	52800020 	mov	w0, #0x1                   	// #1
ffffff8000083f9c:	a9424ff4 	ldp	x20, x19, [sp, #32]
ffffff8000083fa0:	a94157f6 	ldp	x22, x21, [sp, #16]
ffffff8000083fa4:	a8c37bfd 	ldp	x29, x30, [sp], #48
ffffff8000083fa8:	d65f03c0 	ret
ffffff8000083fac:	b4000114 	cbz	x20, ffffff8000083fcc <_ZN4core3fmt9Formatter12pad_integral12write_prefix17hd51b9bff46c071cbE+0x74>
ffffff8000083fb0:	f9400ea3 	ldr	x3, [x21, #24]
ffffff8000083fb4:	aa1403e1 	mov	x1, x20
ffffff8000083fb8:	aa1303e2 	mov	x2, x19
ffffff8000083fbc:	a9424ff4 	ldp	x20, x19, [sp, #32]
ffffff8000083fc0:	a94157f6 	ldp	x22, x21, [sp, #16]
ffffff8000083fc4:	a8c37bfd 	ldp	x29, x30, [sp], #48
ffffff8000083fc8:	d61f0060 	br	x3
ffffff8000083fcc:	2a1f03e0 	mov	w0, wzr
ffffff8000083fd0:	a9424ff4 	ldp	x20, x19, [sp, #32]
ffffff8000083fd4:	a94157f6 	ldp	x22, x21, [sp, #16]
ffffff8000083fd8:	a8c37bfd 	ldp	x29, x30, [sp], #48
ffffff8000083fdc:	d65f03c0 	ret

ffffff8000083fe0 <_ZN4core3fmt9Formatter12pad_integral17h3794e58e22a1883aE>:
ffffff8000083fe0:	d101c3ff 	sub	sp, sp, #0x70
ffffff8000083fe4:	a9017bfd 	stp	x29, x30, [sp, #16]
ffffff8000083fe8:	a9026ffc 	stp	x28, x27, [sp, #32]
ffffff8000083fec:	a90367fa 	stp	x26, x25, [sp, #48]
ffffff8000083ff0:	a9045ff8 	stp	x24, x23, [sp, #64]
ffffff8000083ff4:	a90557f6 	stp	x22, x21, [sp, #80]
ffffff8000083ff8:	a9064ff4 	stp	x20, x19, [sp, #96]
ffffff8000083ffc:	910043fd 	add	x29, sp, #0x10
ffffff8000084000:	aa0503f3 	mov	x19, x5
ffffff8000084004:	aa0403fc 	mov	x28, x4
ffffff8000084008:	aa0303f6 	mov	x22, x3
ffffff800008400c:	aa0203f7 	mov	x23, x2
ffffff8000084010:	aa0003f5 	mov	x21, x0
ffffff8000084014:	36000221 	tbz	w1, #0, ffffff8000084058 <_ZN4core3fmt9Formatter12pad_integral17h3794e58e22a1883aE+0x78>
ffffff8000084018:	b94012ba 	ldr	w26, [x21, #16]
ffffff800008401c:	52800569 	mov	w9, #0x2b                  	// #43
ffffff8000084020:	52a0022a 	mov	w10, #0x110000              	// #1114112
ffffff8000084024:	926b0348 	and	x8, x26, #0x200000
ffffff8000084028:	7100011f 	cmp	w8, #0x0
ffffff800008402c:	8b48567b 	add	x27, x19, x8, lsr #21
ffffff8000084030:	1a890158 	csel	w24, w10, w9, eq	// eq = none
ffffff8000084034:	36b801ba 	tbz	w26, #23, ffffff8000084068 <_ZN4core3fmt9Formatter12pad_integral17h3794e58e22a1883aE+0x88>
ffffff8000084038:	f10082df 	cmp	x22, #0x20
ffffff800008403c:	54000462 	b.cs	ffffff80000840c8 <_ZN4core3fmt9Formatter12pad_integral17h3794e58e22a1883aE+0xe8>  // b.hs, b.nlast
ffffff8000084040:	b40004d6 	cbz	x22, ffffff80000840d8 <_ZN4core3fmt9Formatter12pad_integral17h3794e58e22a1883aE+0xf8>
ffffff8000084044:	f10022df 	cmp	x22, #0x8
ffffff8000084048:	540004c2 	b.cs	ffffff80000840e0 <_ZN4core3fmt9Formatter12pad_integral17h3794e58e22a1883aE+0x100>  // b.hs, b.nlast
ffffff800008404c:	aa1f03e8 	mov	x8, xzr
ffffff8000084050:	aa1f03e0 	mov	x0, xzr
ffffff8000084054:	1400009c 	b	ffffff80000842c4 <_ZN4core3fmt9Formatter12pad_integral17h3794e58e22a1883aE+0x2e4>
ffffff8000084058:	b94012ba 	ldr	w26, [x21, #16]
ffffff800008405c:	9100067b 	add	x27, x19, #0x1
ffffff8000084060:	528005b8 	mov	w24, #0x2d                  	// #45
ffffff8000084064:	37bffeba 	tbnz	w26, #23, ffffff8000084038 <_ZN4core3fmt9Formatter12pad_integral17h3794e58e22a1883aE+0x58>
ffffff8000084068:	aa1f03f7 	mov	x23, xzr
ffffff800008406c:	79402ab4 	ldrh	w20, [x21, #20]
ffffff8000084070:	eb14037f 	cmp	x27, x20
ffffff8000084074:	540013e3 	b.cc	ffffff80000842f0 <_ZN4core3fmt9Formatter12pad_integral17h3794e58e22a1883aE+0x310>  // b.lo, b.ul, b.last
ffffff8000084078:	a94056b9 	ldp	x25, x21, [x21]
ffffff800008407c:	2a1803e2 	mov	w2, w24
ffffff8000084080:	aa1703e3 	mov	x3, x23
ffffff8000084084:	aa1603e4 	mov	x4, x22
ffffff8000084088:	aa1903e0 	mov	x0, x25
ffffff800008408c:	aa1503e1 	mov	x1, x21
ffffff8000084090:	97ffffb2 	bl	ffffff8000083f58 <_ZN4core3fmt9Formatter12pad_integral12write_prefix17hd51b9bff46c071cbE>
ffffff8000084094:	37001c60 	tbnz	w0, #0, ffffff8000084420 <_ZN4core3fmt9Formatter12pad_integral17h3794e58e22a1883aE+0x440>
ffffff8000084098:	f9400ea3 	ldr	x3, [x21, #24]
ffffff800008409c:	aa1903e0 	mov	x0, x25
ffffff80000840a0:	aa1c03e1 	mov	x1, x28
ffffff80000840a4:	aa1303e2 	mov	x2, x19
ffffff80000840a8:	a9464ff4 	ldp	x20, x19, [sp, #96]
ffffff80000840ac:	a94557f6 	ldp	x22, x21, [sp, #80]
ffffff80000840b0:	a9445ff8 	ldp	x24, x23, [sp, #64]
ffffff80000840b4:	a94367fa 	ldp	x26, x25, [sp, #48]
ffffff80000840b8:	a9426ffc 	ldp	x28, x27, [sp, #32]
ffffff80000840bc:	a9417bfd 	ldp	x29, x30, [sp, #16]
ffffff80000840c0:	9101c3ff 	add	sp, sp, #0x70
ffffff80000840c4:	d61f0060 	br	x3
ffffff80000840c8:	aa1703e0 	mov	x0, x23
ffffff80000840cc:	aa1603e1 	mov	x1, x22
ffffff80000840d0:	940001ea 	bl	ffffff8000084878 <_ZN4core3str5count14do_count_chars17hae3c2a457455db39E>
ffffff80000840d4:	14000083 	b	ffffff80000842e0 <_ZN4core3fmt9Formatter12pad_integral17h3794e58e22a1883aE+0x300>
ffffff80000840d8:	aa1f03e0 	mov	x0, xzr
ffffff80000840dc:	14000081 	b	ffffff80000842e0 <_ZN4core3fmt9Formatter12pad_integral17h3794e58e22a1883aE+0x300>
ffffff80000840e0:	aa1703ea 	mov	x10, x23
ffffff80000840e4:	39400ae9 	ldrb	w9, [x23, #2]
ffffff80000840e8:	394006e8 	ldrb	w8, [x23, #1]
ffffff80000840ec:	38404d4b 	ldrb	w11, [x10, #4]!
ffffff80000840f0:	3940094c 	ldrb	w12, [x10, #2]
ffffff80000840f4:	394002ed 	ldrb	w13, [x23]
ffffff80000840f8:	39400eee 	ldrb	w14, [x23, #3]
ffffff80000840fc:	d370bd29 	lsl	x9, x9, #16
ffffff8000084100:	394016ef 	ldrb	w15, [x23, #5]
ffffff8000084104:	39400d4a 	ldrb	w10, [x10, #3]
ffffff8000084108:	53103d8c 	lsl	w12, w12, #16
ffffff800008410c:	aa0821a8 	orr	x8, x13, x8, lsl #8
ffffff8000084110:	aa0e6129 	orr	x9, x9, x14, lsl #24
ffffff8000084114:	0f05e7e4 	movi	v4.8b, #0xbf
ffffff8000084118:	2a0f216b 	orr	w11, w11, w15, lsl #8
ffffff800008411c:	2a0a618a 	orr	w10, w12, w10, lsl #24
ffffff8000084120:	aa080128 	orr	x8, x9, x8
ffffff8000084124:	2a0b0149 	orr	w9, w10, w11
ffffff8000084128:	aa098108 	orr	x8, x8, x9, lsl #32
ffffff800008412c:	9e670100 	fmov	d0, x8
ffffff8000084130:	52800028 	mov	w8, #0x1                   	// #1
ffffff8000084134:	4e080d03 	dup	v3.2d, x8
ffffff8000084138:	927d06c8 	and	x8, x22, #0x18
ffffff800008413c:	f100211f 	cmp	x8, #0x8
ffffff8000084140:	0e243400 	cmgt	v0.8b, v0.8b, v4.8b
ffffff8000084144:	2f08a400 	uxtl	v0.8h, v0.8b
ffffff8000084148:	6f10a401 	uxtl2	v1.4s, v0.8h
ffffff800008414c:	2f10a400 	uxtl	v0.4s, v0.4h
ffffff8000084150:	6f20a422 	uxtl2	v2.2d, v1.4s
ffffff8000084154:	2f20a421 	uxtl	v1.2d, v1.2s
ffffff8000084158:	6f20a405 	uxtl2	v5.2d, v0.4s
ffffff800008415c:	2f20a406 	uxtl	v6.2d, v0.2s
ffffff8000084160:	4e231c40 	and	v0.16b, v2.16b, v3.16b
ffffff8000084164:	4e231c22 	and	v2.16b, v1.16b, v3.16b
ffffff8000084168:	4e231ca1 	and	v1.16b, v5.16b, v3.16b
ffffff800008416c:	4e231cc3 	and	v3.16b, v6.16b, v3.16b
ffffff8000084170:	540009c0 	b.eq	ffffff80000842a8 <_ZN4core3fmt9Formatter12pad_integral17h3794e58e22a1883aE+0x2c8>  // b.none
ffffff8000084174:	aa1703e9 	mov	x9, x23
ffffff8000084178:	f100411f 	cmp	x8, #0x10
ffffff800008417c:	38408d2a 	ldrb	w10, [x9, #8]!
ffffff8000084180:	3940052b 	ldrb	w11, [x9, #1]
ffffff8000084184:	39400d2c 	ldrb	w12, [x9, #3]
ffffff8000084188:	3940092d 	ldrb	w13, [x9, #2]
ffffff800008418c:	3940152e 	ldrb	w14, [x9, #5]
ffffff8000084190:	38404d2f 	ldrb	w15, [x9, #4]!
ffffff8000084194:	39400930 	ldrb	w16, [x9, #2]
ffffff8000084198:	39400d29 	ldrb	w9, [x9, #3]
ffffff800008419c:	d370bdad 	lsl	x13, x13, #16
ffffff80000841a0:	aa0b214a 	orr	x10, x10, x11, lsl #8
ffffff80000841a4:	53103e10 	lsl	w16, w16, #16
ffffff80000841a8:	2a0e21eb 	orr	w11, w15, w14, lsl #8
ffffff80000841ac:	aa0c61ac 	orr	x12, x13, x12, lsl #24
ffffff80000841b0:	2a096209 	orr	w9, w16, w9, lsl #24
ffffff80000841b4:	aa0a018a 	orr	x10, x12, x10
ffffff80000841b8:	2a0b0129 	orr	w9, w9, w11
ffffff80000841bc:	aa098149 	orr	x9, x10, x9, lsl #32
ffffff80000841c0:	9e670125 	fmov	d5, x9
ffffff80000841c4:	52800029 	mov	w9, #0x1                   	// #1
ffffff80000841c8:	4e080d26 	dup	v6.2d, x9
ffffff80000841cc:	0e2434a4 	cmgt	v4.8b, v5.8b, v4.8b
ffffff80000841d0:	2f08a484 	uxtl	v4.8h, v4.8b
ffffff80000841d4:	6f10a485 	uxtl2	v5.4s, v4.8h
ffffff80000841d8:	2f10a484 	uxtl	v4.4s, v4.4h
ffffff80000841dc:	6f20a4a7 	uxtl2	v7.2d, v5.4s
ffffff80000841e0:	2f20a490 	uxtl	v16.2d, v4.2s
ffffff80000841e4:	6f20a484 	uxtl2	v4.2d, v4.4s
ffffff80000841e8:	2f20a4a5 	uxtl	v5.2d, v5.2s
ffffff80000841ec:	4e261ce7 	and	v7.16b, v7.16b, v6.16b
ffffff80000841f0:	4e261e10 	and	v16.16b, v16.16b, v6.16b
ffffff80000841f4:	4e261c84 	and	v4.16b, v4.16b, v6.16b
ffffff80000841f8:	4e261ca5 	and	v5.16b, v5.16b, v6.16b
ffffff80000841fc:	4ee78400 	add	v0.2d, v0.2d, v7.2d
ffffff8000084200:	4ee48421 	add	v1.2d, v1.2d, v4.2d
ffffff8000084204:	4ef08463 	add	v3.2d, v3.2d, v16.2d
ffffff8000084208:	4ee58442 	add	v2.2d, v2.2d, v5.2d
ffffff800008420c:	540004e0 	b.eq	ffffff80000842a8 <_ZN4core3fmt9Formatter12pad_integral17h3794e58e22a1883aE+0x2c8>  // b.none
ffffff8000084210:	aa1703e9 	mov	x9, x23
ffffff8000084214:	0f05e7e4 	movi	v4.8b, #0xbf
ffffff8000084218:	38410d2a 	ldrb	w10, [x9, #16]!
ffffff800008421c:	3940052b 	ldrb	w11, [x9, #1]
ffffff8000084220:	39400d2c 	ldrb	w12, [x9, #3]
ffffff8000084224:	3940092d 	ldrb	w13, [x9, #2]
ffffff8000084228:	3940152e 	ldrb	w14, [x9, #5]
ffffff800008422c:	38404d2f 	ldrb	w15, [x9, #4]!
ffffff8000084230:	39400930 	ldrb	w16, [x9, #2]
ffffff8000084234:	39400d29 	ldrb	w9, [x9, #3]
ffffff8000084238:	d370bdad 	lsl	x13, x13, #16
ffffff800008423c:	aa0b214a 	orr	x10, x10, x11, lsl #8
ffffff8000084240:	53103e10 	lsl	w16, w16, #16
ffffff8000084244:	2a0e21eb 	orr	w11, w15, w14, lsl #8
ffffff8000084248:	aa0c61ac 	orr	x12, x13, x12, lsl #24
ffffff800008424c:	2a096209 	orr	w9, w16, w9, lsl #24
ffffff8000084250:	aa0a018a 	orr	x10, x12, x10
ffffff8000084254:	2a0b0129 	orr	w9, w9, w11
ffffff8000084258:	aa098149 	orr	x9, x10, x9, lsl #32
ffffff800008425c:	9e670125 	fmov	d5, x9
ffffff8000084260:	52800029 	mov	w9, #0x1                   	// #1
ffffff8000084264:	4e080d26 	dup	v6.2d, x9
ffffff8000084268:	0e2434a4 	cmgt	v4.8b, v5.8b, v4.8b
ffffff800008426c:	2f08a484 	uxtl	v4.8h, v4.8b
ffffff8000084270:	6f10a485 	uxtl2	v5.4s, v4.8h
ffffff8000084274:	2f10a484 	uxtl	v4.4s, v4.4h
ffffff8000084278:	6f20a4a7 	uxtl2	v7.2d, v5.4s
ffffff800008427c:	2f20a490 	uxtl	v16.2d, v4.2s
ffffff8000084280:	6f20a484 	uxtl2	v4.2d, v4.4s
ffffff8000084284:	2f20a4a5 	uxtl	v5.2d, v5.2s
ffffff8000084288:	4e261ce7 	and	v7.16b, v7.16b, v6.16b
ffffff800008428c:	4e261e10 	and	v16.16b, v16.16b, v6.16b
ffffff8000084290:	4e261c84 	and	v4.16b, v4.16b, v6.16b
ffffff8000084294:	4e261ca5 	and	v5.16b, v5.16b, v6.16b
ffffff8000084298:	4ee78400 	add	v0.2d, v0.2d, v7.2d
ffffff800008429c:	4ee48421 	add	v1.2d, v1.2d, v4.2d
ffffff80000842a0:	4ef08463 	add	v3.2d, v3.2d, v16.2d
ffffff80000842a4:	4ee58442 	add	v2.2d, v2.2d, v5.2d
ffffff80000842a8:	4ee28462 	add	v2.2d, v3.2d, v2.2d
ffffff80000842ac:	4ee08420 	add	v0.2d, v1.2d, v0.2d
ffffff80000842b0:	eb0802df 	cmp	x22, x8
ffffff80000842b4:	4ee08440 	add	v0.2d, v2.2d, v0.2d
ffffff80000842b8:	5ef1b800 	addp	d0, v0.2d
ffffff80000842bc:	9e660000 	fmov	x0, d0
ffffff80000842c0:	54000100 	b.eq	ffffff80000842e0 <_ZN4core3fmt9Formatter12pad_integral17h3794e58e22a1883aE+0x300>  // b.none
ffffff80000842c4:	cb0802c9 	sub	x9, x22, x8
ffffff80000842c8:	8b0802e8 	add	x8, x23, x8
ffffff80000842cc:	38c0150a 	ldrsb	w10, [x8], #1
ffffff80000842d0:	3101055f 	cmn	w10, #0x41
ffffff80000842d4:	9a80d400 	cinc	x0, x0, gt
ffffff80000842d8:	f1000529 	subs	x9, x9, #0x1
ffffff80000842dc:	54ffff81 	b.ne	ffffff80000842cc <_ZN4core3fmt9Formatter12pad_integral17h3794e58e22a1883aE+0x2ec>  // b.any
ffffff80000842e0:	8b1b001b 	add	x27, x0, x27
ffffff80000842e4:	79402ab4 	ldrh	w20, [x21, #20]
ffffff80000842e8:	eb14037f 	cmp	x27, x20
ffffff80000842ec:	54ffec62 	b.cs	ffffff8000084078 <_ZN4core3fmt9Formatter12pad_integral17h3794e58e22a1883aE+0x98>  // b.hs, b.nlast
ffffff80000842f0:	f90007fc 	str	x28, [sp, #8]
ffffff80000842f4:	37c0011a 	tbnz	w26, #24, ffffff8000084314 <_ZN4core3fmt9Formatter12pad_integral17h3794e58e22a1883aE+0x334>
ffffff80000842f8:	531d7b48 	ubfx	w8, w26, #29, #2
ffffff80000842fc:	4b1b029b 	sub	w27, w20, w27
ffffff8000084300:	7100051f 	cmp	w8, #0x1
ffffff8000084304:	540003ec 	b.gt	ffffff8000084380 <_ZN4core3fmt9Formatter12pad_integral17h3794e58e22a1883aE+0x3a0>
ffffff8000084308:	35000588 	cbnz	w8, ffffff80000843b8 <_ZN4core3fmt9Formatter12pad_integral17h3794e58e22a1883aE+0x3d8>
ffffff800008430c:	2a1f03fc 	mov	w28, wzr
ffffff8000084310:	1400002b 	b	ffffff80000843bc <_ZN4core3fmt9Formatter12pad_integral17h3794e58e22a1883aE+0x3dc>
ffffff8000084314:	a940f2ba 	ldp	x26, x28, [x21, #8]
ffffff8000084318:	52b3fc08 	mov	w8, #0x9fe00000            	// #-1612709888
ffffff800008431c:	52800609 	mov	w9, #0x30                  	// #48
ffffff8000084320:	f94002b9 	ldr	x25, [x21]
ffffff8000084324:	2a1803e2 	mov	w2, w24
ffffff8000084328:	72a40009 	movk	w9, #0x2000, lsl #16
ffffff800008432c:	aa1703e3 	mov	x3, x23
ffffff8000084330:	aa1603e4 	mov	x4, x22
ffffff8000084334:	0a080388 	and	w8, w28, w8
ffffff8000084338:	aa1903e0 	mov	x0, x25
ffffff800008433c:	aa1a03e1 	mov	x1, x26
ffffff8000084340:	2a090108 	orr	w8, w8, w9
ffffff8000084344:	b90012a8 	str	w8, [x21, #16]
ffffff8000084348:	97ffff04 	bl	ffffff8000083f58 <_ZN4core3fmt9Formatter12pad_integral12write_prefix17hd51b9bff46c071cbE>
ffffff800008434c:	370006a0 	tbnz	w0, #0, ffffff8000084420 <_ZN4core3fmt9Formatter12pad_integral17h3794e58e22a1883aE+0x440>
ffffff8000084350:	2a1f03f6 	mov	w22, wzr
ffffff8000084354:	4b1b0294 	sub	w20, w20, w27
ffffff8000084358:	12003ec8 	and	w8, w22, #0xffff
ffffff800008435c:	6b34211f 	cmp	w8, w20, uxth
ffffff8000084360:	540001a2 	b.cs	ffffff8000084394 <_ZN4core3fmt9Formatter12pad_integral17h3794e58e22a1883aE+0x3b4>  // b.hs, b.nlast
ffffff8000084364:	f9401348 	ldr	x8, [x26, #32]
ffffff8000084368:	aa1903e0 	mov	x0, x25
ffffff800008436c:	52800601 	mov	w1, #0x30                  	// #48
ffffff8000084370:	110006d6 	add	w22, w22, #0x1
ffffff8000084374:	d63f0100 	blr	x8
ffffff8000084378:	3607ff00 	tbz	w0, #0, ffffff8000084358 <_ZN4core3fmt9Formatter12pad_integral17h3794e58e22a1883aE+0x378>
ffffff800008437c:	14000029 	b	ffffff8000084420 <_ZN4core3fmt9Formatter12pad_integral17h3794e58e22a1883aE+0x440>
ffffff8000084380:	7100091f 	cmp	w8, #0x2
ffffff8000084384:	2a1b03fc 	mov	w28, w27
ffffff8000084388:	540001a1 	b.ne	ffffff80000843bc <_ZN4core3fmt9Formatter12pad_integral17h3794e58e22a1883aE+0x3dc>  // b.any
ffffff800008438c:	53013f7c 	ubfx	w28, w27, #1, #15
ffffff8000084390:	1400000b 	b	ffffff80000843bc <_ZN4core3fmt9Formatter12pad_integral17h3794e58e22a1883aE+0x3dc>
ffffff8000084394:	f9400f48 	ldr	x8, [x26, #24]
ffffff8000084398:	f94007e1 	ldr	x1, [sp, #8]
ffffff800008439c:	aa1903e0 	mov	x0, x25
ffffff80000843a0:	aa1303e2 	mov	x2, x19
ffffff80000843a4:	d63f0100 	blr	x8
ffffff80000843a8:	370003c0 	tbnz	w0, #0, ffffff8000084420 <_ZN4core3fmt9Formatter12pad_integral17h3794e58e22a1883aE+0x440>
ffffff80000843ac:	2a1f03f3 	mov	w19, wzr
ffffff80000843b0:	f9000abc 	str	x28, [x21, #16]
ffffff80000843b4:	1400001c 	b	ffffff8000084424 <_ZN4core3fmt9Formatter12pad_integral17h3794e58e22a1883aE+0x444>
ffffff80000843b8:	2a1b03fc 	mov	w28, w27
ffffff80000843bc:	a94056b9 	ldp	x25, x21, [x21]
ffffff80000843c0:	2a1f03f4 	mov	w20, wzr
ffffff80000843c4:	12003e88 	and	w8, w20, #0xffff
ffffff80000843c8:	6b3c211f 	cmp	w8, w28, uxth
ffffff80000843cc:	54000102 	b.cs	ffffff80000843ec <_ZN4core3fmt9Formatter12pad_integral17h3794e58e22a1883aE+0x40c>  // b.hs, b.nlast
ffffff80000843d0:	f94012a8 	ldr	x8, [x21, #32]
ffffff80000843d4:	12005341 	and	w1, w26, #0x1fffff
ffffff80000843d8:	aa1903e0 	mov	x0, x25
ffffff80000843dc:	11000694 	add	w20, w20, #0x1
ffffff80000843e0:	d63f0100 	blr	x8
ffffff80000843e4:	3607ff00 	tbz	w0, #0, ffffff80000843c4 <_ZN4core3fmt9Formatter12pad_integral17h3794e58e22a1883aE+0x3e4>
ffffff80000843e8:	1400000e 	b	ffffff8000084420 <_ZN4core3fmt9Formatter12pad_integral17h3794e58e22a1883aE+0x440>
ffffff80000843ec:	aa1903e0 	mov	x0, x25
ffffff80000843f0:	aa1503e1 	mov	x1, x21
ffffff80000843f4:	2a1803e2 	mov	w2, w24
ffffff80000843f8:	aa1703e3 	mov	x3, x23
ffffff80000843fc:	aa1603e4 	mov	x4, x22
ffffff8000084400:	97fffed6 	bl	ffffff8000083f58 <_ZN4core3fmt9Formatter12pad_integral12write_prefix17hd51b9bff46c071cbE>
ffffff8000084404:	370000e0 	tbnz	w0, #0, ffffff8000084420 <_ZN4core3fmt9Formatter12pad_integral17h3794e58e22a1883aE+0x440>
ffffff8000084408:	f9400ea8 	ldr	x8, [x21, #24]
ffffff800008440c:	f94007e1 	ldr	x1, [sp, #8]
ffffff8000084410:	aa1903e0 	mov	x0, x25
ffffff8000084414:	aa1303e2 	mov	x2, x19
ffffff8000084418:	d63f0100 	blr	x8
ffffff800008441c:	36000160 	tbz	w0, #0, ffffff8000084448 <_ZN4core3fmt9Formatter12pad_integral17h3794e58e22a1883aE+0x468>
ffffff8000084420:	52800033 	mov	w19, #0x1                   	// #1
ffffff8000084424:	2a1303e0 	mov	w0, w19
ffffff8000084428:	a9464ff4 	ldp	x20, x19, [sp, #96]
ffffff800008442c:	a94557f6 	ldp	x22, x21, [sp, #80]
ffffff8000084430:	a9445ff8 	ldp	x24, x23, [sp, #64]
ffffff8000084434:	a94367fa 	ldp	x26, x25, [sp, #48]
ffffff8000084438:	a9426ffc 	ldp	x28, x27, [sp, #32]
ffffff800008443c:	a9417bfd 	ldp	x29, x30, [sp, #16]
ffffff8000084440:	9101c3ff 	add	sp, sp, #0x70
ffffff8000084444:	d65f03c0 	ret
ffffff8000084448:	2a1f03f4 	mov	w20, wzr
ffffff800008444c:	4b1c0376 	sub	w22, w27, w28
ffffff8000084450:	12003e88 	and	w8, w20, #0xffff
ffffff8000084454:	6b36211f 	cmp	w8, w22, uxth
ffffff8000084458:	1a9f27f3 	cset	w19, cc	// cc = lo, ul, last
ffffff800008445c:	54fffe42 	b.cs	ffffff8000084424 <_ZN4core3fmt9Formatter12pad_integral17h3794e58e22a1883aE+0x444>  // b.hs, b.nlast
ffffff8000084460:	f94012a8 	ldr	x8, [x21, #32]
ffffff8000084464:	12005341 	and	w1, w26, #0x1fffff
ffffff8000084468:	aa1903e0 	mov	x0, x25
ffffff800008446c:	11000694 	add	w20, w20, #0x1
ffffff8000084470:	d63f0100 	blr	x8
ffffff8000084474:	3607fee0 	tbz	w0, #0, ffffff8000084450 <_ZN4core3fmt9Formatter12pad_integral17h3794e58e22a1883aE+0x470>
ffffff8000084478:	17ffffeb 	b	ffffff8000084424 <_ZN4core3fmt9Formatter12pad_integral17h3794e58e22a1883aE+0x444>

ffffff800008447c <_ZN4core3fmt9Formatter3pad17hd5e22725c7165dbdE>:
ffffff800008447c:	a9bb7bfd 	stp	x29, x30, [sp, #-80]!
ffffff8000084480:	a90167fa 	stp	x26, x25, [sp, #16]
ffffff8000084484:	a9025ff8 	stp	x24, x23, [sp, #32]
ffffff8000084488:	a90357f6 	stp	x22, x21, [sp, #48]
ffffff800008448c:	a9044ff4 	stp	x20, x19, [sp, #64]
ffffff8000084490:	910003fd 	mov	x29, sp
ffffff8000084494:	b9401016 	ldr	w22, [x0, #16]
ffffff8000084498:	aa0203f4 	mov	x20, x2
ffffff800008449c:	aa0103f3 	mov	x19, x1
ffffff80000844a0:	720506df 	tst	w22, #0x18000000
ffffff80000844a4:	540017c0 	b.eq	ffffff800008479c <_ZN4core3fmt9Formatter3pad17hd5e22725c7165dbdE+0x320>  // b.none
ffffff80000844a8:	37e00136 	tbnz	w22, #28, ffffff80000844cc <_ZN4core3fmt9Formatter3pad17hd5e22725c7165dbdE+0x50>
ffffff80000844ac:	f100829f 	cmp	x20, #0x20
ffffff80000844b0:	54000482 	b.cs	ffffff8000084540 <_ZN4core3fmt9Formatter3pad17hd5e22725c7165dbdE+0xc4>  // b.hs, b.nlast
ffffff80000844b4:	b40005b4 	cbz	x20, ffffff8000084568 <_ZN4core3fmt9Formatter3pad17hd5e22725c7165dbdE+0xec>
ffffff80000844b8:	f100229f 	cmp	x20, #0x8
ffffff80000844bc:	540005a2 	b.cs	ffffff8000084570 <_ZN4core3fmt9Formatter3pad17hd5e22725c7165dbdE+0xf4>  // b.hs, b.nlast
ffffff80000844c0:	aa1f03e9 	mov	x9, xzr
ffffff80000844c4:	aa1f03e8 	mov	x8, xzr
ffffff80000844c8:	140000a3 	b	ffffff8000084754 <_ZN4core3fmt9Formatter3pad17hd5e22725c7165dbdE+0x2d8>
ffffff80000844cc:	79402c08 	ldrh	w8, [x0, #22]
ffffff80000844d0:	b4000468 	cbz	x8, ffffff800008455c <_ZN4core3fmt9Formatter3pad17hd5e22725c7165dbdE+0xe0>
ffffff80000844d4:	8b14026a 	add	x10, x19, x20
ffffff80000844d8:	aa1303eb 	mov	x11, x19
ffffff80000844dc:	aa0803e9 	mov	x9, x8
ffffff80000844e0:	aa1f03f4 	mov	x20, xzr
ffffff80000844e4:	14000007 	b	ffffff8000084500 <_ZN4core3fmt9Formatter3pad17hd5e22725c7165dbdE+0x84>
ffffff80000844e8:	9100096c 	add	x12, x11, #0x2
ffffff80000844ec:	cb0b018b 	sub	x11, x12, x11
ffffff80000844f0:	f1000529 	subs	x9, x9, #0x1
ffffff80000844f4:	8b140174 	add	x20, x11, x20
ffffff80000844f8:	aa0c03eb 	mov	x11, x12
ffffff80000844fc:	540001e0 	b.eq	ffffff8000084538 <_ZN4core3fmt9Formatter3pad17hd5e22725c7165dbdE+0xbc>  // b.none
ffffff8000084500:	eb0a017f 	cmp	x11, x10
ffffff8000084504:	540001a0 	b.eq	ffffff8000084538 <_ZN4core3fmt9Formatter3pad17hd5e22725c7165dbdE+0xbc>  // b.none
ffffff8000084508:	aa0b03ec 	mov	x12, x11
ffffff800008450c:	38c0158d 	ldrsb	w13, [x12], #1
ffffff8000084510:	36fffeed 	tbz	w13, #31, ffffff80000844ec <_ZN4core3fmt9Formatter3pad17hd5e22725c7165dbdE+0x70>
ffffff8000084514:	12001dac 	and	w12, w13, #0xff
ffffff8000084518:	7103819f 	cmp	w12, #0xe0
ffffff800008451c:	54fffe63 	b.cc	ffffff80000844e8 <_ZN4core3fmt9Formatter3pad17hd5e22725c7165dbdE+0x6c>  // b.lo, b.ul, b.last
ffffff8000084520:	7103c19f 	cmp	w12, #0xf0
ffffff8000084524:	54000063 	b.cc	ffffff8000084530 <_ZN4core3fmt9Formatter3pad17hd5e22725c7165dbdE+0xb4>  // b.lo, b.ul, b.last
ffffff8000084528:	9100116c 	add	x12, x11, #0x4
ffffff800008452c:	17fffff0 	b	ffffff80000844ec <_ZN4core3fmt9Formatter3pad17hd5e22725c7165dbdE+0x70>
ffffff8000084530:	91000d6c 	add	x12, x11, #0x3
ffffff8000084534:	17ffffee 	b	ffffff80000844ec <_ZN4core3fmt9Formatter3pad17hd5e22725c7165dbdE+0x70>
ffffff8000084538:	cb090108 	sub	x8, x8, x9
ffffff800008453c:	1400008d 	b	ffffff8000084770 <_ZN4core3fmt9Formatter3pad17hd5e22725c7165dbdE+0x2f4>
ffffff8000084540:	aa0003f5 	mov	x21, x0
ffffff8000084544:	aa1303e0 	mov	x0, x19
ffffff8000084548:	aa1403e1 	mov	x1, x20
ffffff800008454c:	940000cb 	bl	ffffff8000084878 <_ZN4core3str5count14do_count_chars17hae3c2a457455db39E>
ffffff8000084550:	aa0003e8 	mov	x8, x0
ffffff8000084554:	aa1503e0 	mov	x0, x21
ffffff8000084558:	14000086 	b	ffffff8000084770 <_ZN4core3fmt9Formatter3pad17hd5e22725c7165dbdE+0x2f4>
ffffff800008455c:	aa1f03f4 	mov	x20, xzr
ffffff8000084560:	cb1f0108 	sub	x8, x8, xzr
ffffff8000084564:	14000083 	b	ffffff8000084770 <_ZN4core3fmt9Formatter3pad17hd5e22725c7165dbdE+0x2f4>
ffffff8000084568:	aa1f03e8 	mov	x8, xzr
ffffff800008456c:	14000081 	b	ffffff8000084770 <_ZN4core3fmt9Formatter3pad17hd5e22725c7165dbdE+0x2f4>
ffffff8000084570:	aa1303ea 	mov	x10, x19
ffffff8000084574:	39400a69 	ldrb	w9, [x19, #2]
ffffff8000084578:	39400668 	ldrb	w8, [x19, #1]
ffffff800008457c:	38404d4b 	ldrb	w11, [x10, #4]!
ffffff8000084580:	3940094c 	ldrb	w12, [x10, #2]
ffffff8000084584:	3940026d 	ldrb	w13, [x19]
ffffff8000084588:	39400e6e 	ldrb	w14, [x19, #3]
ffffff800008458c:	d370bd29 	lsl	x9, x9, #16
ffffff8000084590:	3940166f 	ldrb	w15, [x19, #5]
ffffff8000084594:	39400d4a 	ldrb	w10, [x10, #3]
ffffff8000084598:	53103d8c 	lsl	w12, w12, #16
ffffff800008459c:	aa0821a8 	orr	x8, x13, x8, lsl #8
ffffff80000845a0:	aa0e6129 	orr	x9, x9, x14, lsl #24
ffffff80000845a4:	0f05e7e4 	movi	v4.8b, #0xbf
ffffff80000845a8:	2a0f216b 	orr	w11, w11, w15, lsl #8
ffffff80000845ac:	2a0a618a 	orr	w10, w12, w10, lsl #24
ffffff80000845b0:	aa080128 	orr	x8, x9, x8
ffffff80000845b4:	2a0b0149 	orr	w9, w10, w11
ffffff80000845b8:	aa098108 	orr	x8, x8, x9, lsl #32
ffffff80000845bc:	927d0689 	and	x9, x20, #0x18
ffffff80000845c0:	f100213f 	cmp	x9, #0x8
ffffff80000845c4:	9e670100 	fmov	d0, x8
ffffff80000845c8:	52800028 	mov	w8, #0x1                   	// #1
ffffff80000845cc:	4e080d03 	dup	v3.2d, x8
ffffff80000845d0:	0e243400 	cmgt	v0.8b, v0.8b, v4.8b
ffffff80000845d4:	2f08a400 	uxtl	v0.8h, v0.8b
ffffff80000845d8:	6f10a401 	uxtl2	v1.4s, v0.8h
ffffff80000845dc:	2f10a400 	uxtl	v0.4s, v0.4h
ffffff80000845e0:	6f20a422 	uxtl2	v2.2d, v1.4s
ffffff80000845e4:	2f20a421 	uxtl	v1.2d, v1.2s
ffffff80000845e8:	6f20a405 	uxtl2	v5.2d, v0.4s
ffffff80000845ec:	2f20a406 	uxtl	v6.2d, v0.2s
ffffff80000845f0:	4e231c40 	and	v0.16b, v2.16b, v3.16b
ffffff80000845f4:	4e231c22 	and	v2.16b, v1.16b, v3.16b
ffffff80000845f8:	4e231ca1 	and	v1.16b, v5.16b, v3.16b
ffffff80000845fc:	4e231cc3 	and	v3.16b, v6.16b, v3.16b
ffffff8000084600:	540009c0 	b.eq	ffffff8000084738 <_ZN4core3fmt9Formatter3pad17hd5e22725c7165dbdE+0x2bc>  // b.none
ffffff8000084604:	aa1303e8 	mov	x8, x19
ffffff8000084608:	f100413f 	cmp	x9, #0x10
ffffff800008460c:	38408d0a 	ldrb	w10, [x8, #8]!
ffffff8000084610:	3940050b 	ldrb	w11, [x8, #1]
ffffff8000084614:	39400d0c 	ldrb	w12, [x8, #3]
ffffff8000084618:	3940090d 	ldrb	w13, [x8, #2]
ffffff800008461c:	3940150e 	ldrb	w14, [x8, #5]
ffffff8000084620:	38404d0f 	ldrb	w15, [x8, #4]!
ffffff8000084624:	39400910 	ldrb	w16, [x8, #2]
ffffff8000084628:	39400d08 	ldrb	w8, [x8, #3]
ffffff800008462c:	d370bdad 	lsl	x13, x13, #16
ffffff8000084630:	aa0b214a 	orr	x10, x10, x11, lsl #8
ffffff8000084634:	53103e10 	lsl	w16, w16, #16
ffffff8000084638:	2a0e21eb 	orr	w11, w15, w14, lsl #8
ffffff800008463c:	aa0c61ac 	orr	x12, x13, x12, lsl #24
ffffff8000084640:	2a086208 	orr	w8, w16, w8, lsl #24
ffffff8000084644:	aa0a018a 	orr	x10, x12, x10
ffffff8000084648:	2a0b0108 	orr	w8, w8, w11
ffffff800008464c:	aa088148 	orr	x8, x10, x8, lsl #32
ffffff8000084650:	9e670105 	fmov	d5, x8
ffffff8000084654:	52800028 	mov	w8, #0x1                   	// #1
ffffff8000084658:	4e080d06 	dup	v6.2d, x8
ffffff800008465c:	0e2434a4 	cmgt	v4.8b, v5.8b, v4.8b
ffffff8000084660:	2f08a484 	uxtl	v4.8h, v4.8b
ffffff8000084664:	6f10a485 	uxtl2	v5.4s, v4.8h
ffffff8000084668:	2f10a484 	uxtl	v4.4s, v4.4h
ffffff800008466c:	6f20a4a7 	uxtl2	v7.2d, v5.4s
ffffff8000084670:	2f20a490 	uxtl	v16.2d, v4.2s
ffffff8000084674:	6f20a484 	uxtl2	v4.2d, v4.4s
ffffff8000084678:	2f20a4a5 	uxtl	v5.2d, v5.2s
ffffff800008467c:	4e261ce7 	and	v7.16b, v7.16b, v6.16b
ffffff8000084680:	4e261e10 	and	v16.16b, v16.16b, v6.16b
ffffff8000084684:	4e261c84 	and	v4.16b, v4.16b, v6.16b
ffffff8000084688:	4e261ca5 	and	v5.16b, v5.16b, v6.16b
ffffff800008468c:	4ee78400 	add	v0.2d, v0.2d, v7.2d
ffffff8000084690:	4ee48421 	add	v1.2d, v1.2d, v4.2d
ffffff8000084694:	4ef08463 	add	v3.2d, v3.2d, v16.2d
ffffff8000084698:	4ee58442 	add	v2.2d, v2.2d, v5.2d
ffffff800008469c:	540004e0 	b.eq	ffffff8000084738 <_ZN4core3fmt9Formatter3pad17hd5e22725c7165dbdE+0x2bc>  // b.none
ffffff80000846a0:	aa1303e8 	mov	x8, x19
ffffff80000846a4:	0f05e7e4 	movi	v4.8b, #0xbf
ffffff80000846a8:	38410d0a 	ldrb	w10, [x8, #16]!
ffffff80000846ac:	3940050b 	ldrb	w11, [x8, #1]
ffffff80000846b0:	39400d0c 	ldrb	w12, [x8, #3]
ffffff80000846b4:	3940090d 	ldrb	w13, [x8, #2]
ffffff80000846b8:	3940150e 	ldrb	w14, [x8, #5]
ffffff80000846bc:	38404d0f 	ldrb	w15, [x8, #4]!
ffffff80000846c0:	39400910 	ldrb	w16, [x8, #2]
ffffff80000846c4:	39400d08 	ldrb	w8, [x8, #3]
ffffff80000846c8:	d370bdad 	lsl	x13, x13, #16
ffffff80000846cc:	aa0b214a 	orr	x10, x10, x11, lsl #8
ffffff80000846d0:	53103e10 	lsl	w16, w16, #16
ffffff80000846d4:	2a0e21eb 	orr	w11, w15, w14, lsl #8
ffffff80000846d8:	aa0c61ac 	orr	x12, x13, x12, lsl #24
ffffff80000846dc:	2a086208 	orr	w8, w16, w8, lsl #24
ffffff80000846e0:	aa0a018a 	orr	x10, x12, x10
ffffff80000846e4:	2a0b0108 	orr	w8, w8, w11
ffffff80000846e8:	aa088148 	orr	x8, x10, x8, lsl #32
ffffff80000846ec:	9e670105 	fmov	d5, x8
ffffff80000846f0:	52800028 	mov	w8, #0x1                   	// #1
ffffff80000846f4:	4e080d06 	dup	v6.2d, x8
ffffff80000846f8:	0e2434a4 	cmgt	v4.8b, v5.8b, v4.8b
ffffff80000846fc:	2f08a484 	uxtl	v4.8h, v4.8b
ffffff8000084700:	6f10a485 	uxtl2	v5.4s, v4.8h
ffffff8000084704:	2f10a484 	uxtl	v4.4s, v4.4h
ffffff8000084708:	6f20a4a7 	uxtl2	v7.2d, v5.4s
ffffff800008470c:	2f20a490 	uxtl	v16.2d, v4.2s
ffffff8000084710:	6f20a484 	uxtl2	v4.2d, v4.4s
ffffff8000084714:	2f20a4a5 	uxtl	v5.2d, v5.2s
ffffff8000084718:	4e261ce7 	and	v7.16b, v7.16b, v6.16b
ffffff800008471c:	4e261e10 	and	v16.16b, v16.16b, v6.16b
ffffff8000084720:	4e261c84 	and	v4.16b, v4.16b, v6.16b
ffffff8000084724:	4e261ca5 	and	v5.16b, v5.16b, v6.16b
ffffff8000084728:	4ee78400 	add	v0.2d, v0.2d, v7.2d
ffffff800008472c:	4ee48421 	add	v1.2d, v1.2d, v4.2d
ffffff8000084730:	4ef08463 	add	v3.2d, v3.2d, v16.2d
ffffff8000084734:	4ee58442 	add	v2.2d, v2.2d, v5.2d
ffffff8000084738:	4ee28462 	add	v2.2d, v3.2d, v2.2d
ffffff800008473c:	4ee08420 	add	v0.2d, v1.2d, v0.2d
ffffff8000084740:	eb09029f 	cmp	x20, x9
ffffff8000084744:	4ee08440 	add	v0.2d, v2.2d, v0.2d
ffffff8000084748:	5ef1b800 	addp	d0, v0.2d
ffffff800008474c:	9e660008 	fmov	x8, d0
ffffff8000084750:	54000100 	b.eq	ffffff8000084770 <_ZN4core3fmt9Formatter3pad17hd5e22725c7165dbdE+0x2f4>  // b.none
ffffff8000084754:	cb09028a 	sub	x10, x20, x9
ffffff8000084758:	8b090269 	add	x9, x19, x9
ffffff800008475c:	38c0152b 	ldrsb	w11, [x9], #1
ffffff8000084760:	3101057f 	cmn	w11, #0x41
ffffff8000084764:	9a88d508 	cinc	x8, x8, gt
ffffff8000084768:	f100054a 	subs	x10, x10, #0x1
ffffff800008476c:	54ffff81 	b.ne	ffffff800008475c <_ZN4core3fmt9Formatter3pad17hd5e22725c7165dbdE+0x2e0>  // b.any
ffffff8000084770:	79402809 	ldrh	w9, [x0, #20]
ffffff8000084774:	eb09011f 	cmp	x8, x9
ffffff8000084778:	54000122 	b.cs	ffffff800008479c <_ZN4core3fmt9Formatter3pad17hd5e22725c7165dbdE+0x320>  // b.hs, b.nlast
ffffff800008477c:	531d7aca 	ubfx	w10, w22, #29, #2
ffffff8000084780:	2a1f03f7 	mov	w23, wzr
ffffff8000084784:	4b080139 	sub	w25, w9, w8
ffffff8000084788:	7100055f 	cmp	w10, #0x1
ffffff800008478c:	540001cc 	b.gt	ffffff80000847c4 <_ZN4core3fmt9Formatter3pad17hd5e22725c7165dbdE+0x348>
ffffff8000084790:	3400020a 	cbz	w10, ffffff80000847d0 <_ZN4core3fmt9Formatter3pad17hd5e22725c7165dbdE+0x354>
ffffff8000084794:	2a1903f7 	mov	w23, w25
ffffff8000084798:	1400000e 	b	ffffff80000847d0 <_ZN4core3fmt9Formatter3pad17hd5e22725c7165dbdE+0x354>
ffffff800008479c:	a9402000 	ldp	x0, x8, [x0]
ffffff80000847a0:	aa1303e1 	mov	x1, x19
ffffff80000847a4:	f9400d03 	ldr	x3, [x8, #24]
ffffff80000847a8:	aa1403e2 	mov	x2, x20
ffffff80000847ac:	a9444ff4 	ldp	x20, x19, [sp, #64]
ffffff80000847b0:	a94357f6 	ldp	x22, x21, [sp, #48]
ffffff80000847b4:	a9425ff8 	ldp	x24, x23, [sp, #32]
ffffff80000847b8:	a94167fa 	ldp	x26, x25, [sp, #16]
ffffff80000847bc:	a8c57bfd 	ldp	x29, x30, [sp], #80
ffffff80000847c0:	d61f0060 	br	x3
ffffff80000847c4:	7100095f 	cmp	w10, #0x2
ffffff80000847c8:	54000041 	b.ne	ffffff80000847d0 <_ZN4core3fmt9Formatter3pad17hd5e22725c7165dbdE+0x354>  // b.any
ffffff80000847cc:	53013f37 	ubfx	w23, w25, #1, #15
ffffff80000847d0:	a9406015 	ldp	x21, x24, [x0]
ffffff80000847d4:	2a1f03fa 	mov	w26, wzr
ffffff80000847d8:	12003f48 	and	w8, w26, #0xffff
ffffff80000847dc:	6b37211f 	cmp	w8, w23, uxth
ffffff80000847e0:	54000102 	b.cs	ffffff8000084800 <_ZN4core3fmt9Formatter3pad17hd5e22725c7165dbdE+0x384>  // b.hs, b.nlast
ffffff80000847e4:	f9401308 	ldr	x8, [x24, #32]
ffffff80000847e8:	120052c1 	and	w1, w22, #0x1fffff
ffffff80000847ec:	aa1503e0 	mov	x0, x21
ffffff80000847f0:	1100075a 	add	w26, w26, #0x1
ffffff80000847f4:	d63f0100 	blr	x8
ffffff80000847f8:	3607ff00 	tbz	w0, #0, ffffff80000847d8 <_ZN4core3fmt9Formatter3pad17hd5e22725c7165dbdE+0x35c>
ffffff80000847fc:	14000007 	b	ffffff8000084818 <_ZN4core3fmt9Formatter3pad17hd5e22725c7165dbdE+0x39c>
ffffff8000084800:	f9400f08 	ldr	x8, [x24, #24]
ffffff8000084804:	aa1503e0 	mov	x0, x21
ffffff8000084808:	aa1303e1 	mov	x1, x19
ffffff800008480c:	aa1403e2 	mov	x2, x20
ffffff8000084810:	d63f0100 	blr	x8
ffffff8000084814:	36000120 	tbz	w0, #0, ffffff8000084838 <_ZN4core3fmt9Formatter3pad17hd5e22725c7165dbdE+0x3bc>
ffffff8000084818:	52800033 	mov	w19, #0x1                   	// #1
ffffff800008481c:	2a1303e0 	mov	w0, w19
ffffff8000084820:	a9444ff4 	ldp	x20, x19, [sp, #64]
ffffff8000084824:	a94357f6 	ldp	x22, x21, [sp, #48]
ffffff8000084828:	a9425ff8 	ldp	x24, x23, [sp, #32]
ffffff800008482c:	a94167fa 	ldp	x26, x25, [sp, #16]
ffffff8000084830:	a8c57bfd 	ldp	x29, x30, [sp], #80
ffffff8000084834:	d65f03c0 	ret
ffffff8000084838:	2a1f03f4 	mov	w20, wzr
ffffff800008483c:	4b170337 	sub	w23, w25, w23
ffffff8000084840:	12003e88 	and	w8, w20, #0xffff
ffffff8000084844:	6b37211f 	cmp	w8, w23, uxth
ffffff8000084848:	1a9f27f3 	cset	w19, cc	// cc = lo, ul, last
ffffff800008484c:	54fffe82 	b.cs	ffffff800008481c <_ZN4core3fmt9Formatter3pad17hd5e22725c7165dbdE+0x3a0>  // b.hs, b.nlast
ffffff8000084850:	f9401308 	ldr	x8, [x24, #32]
ffffff8000084854:	120052c1 	and	w1, w22, #0x1fffff
ffffff8000084858:	aa1503e0 	mov	x0, x21
ffffff800008485c:	11000694 	add	w20, w20, #0x1
ffffff8000084860:	d63f0100 	blr	x8
ffffff8000084864:	3607fee0 	tbz	w0, #0, ffffff8000084840 <_ZN4core3fmt9Formatter3pad17hd5e22725c7165dbdE+0x3c4>
ffffff8000084868:	17ffffed 	b	ffffff800008481c <_ZN4core3fmt9Formatter3pad17hd5e22725c7165dbdE+0x3a0>

ffffff800008486c <_ZN4core3fmt9Formatter9write_str17h84f67679a465af20E>:
ffffff800008486c:	a9402000 	ldp	x0, x8, [x0]
ffffff8000084870:	f9400d03 	ldr	x3, [x8, #24]
ffffff8000084874:	d61f0060 	br	x3

ffffff8000084878 <_ZN4core3str5count14do_count_chars17hae3c2a457455db39E>:
ffffff8000084878:	d10183ff 	sub	sp, sp, #0x60
ffffff800008487c:	fd0023ea 	str	d10, [sp, #64]
ffffff8000084880:	6d0523e9 	stp	d9, d8, [sp, #80]
ffffff8000084884:	91001c08 	add	x8, x0, #0x7
ffffff8000084888:	927df109 	and	x9, x8, #0xfffffffffffffff8
ffffff800008488c:	cb00012c 	sub	x12, x9, x0
ffffff8000084890:	eb0c002b 	subs	x11, x1, x12
ffffff8000084894:	540000e2 	b.cs	ffffff80000848b0 <_ZN4core3str5count14do_count_chars17hae3c2a457455db39E+0x38>  // b.hs, b.nlast
ffffff8000084898:	b4000741 	cbz	x1, ffffff8000084980 <_ZN4core3str5count14do_count_chars17hae3c2a457455db39E+0x108>
ffffff800008489c:	f100203f 	cmp	x1, #0x8
ffffff80000848a0:	54001ba2 	b.cs	ffffff8000084c14 <_ZN4core3str5count14do_count_chars17hae3c2a457455db39E+0x39c>  // b.hs, b.nlast
ffffff80000848a4:	aa1f03e9 	mov	x9, xzr
ffffff80000848a8:	aa1f03e8 	mov	x8, xzr
ffffff80000848ac:	140001d3 	b	ffffff8000084ff8 <_ZN4core3str5count14do_count_chars17hae3c2a457455db39E+0x780>
ffffff80000848b0:	f100217f 	cmp	x11, #0x8
ffffff80000848b4:	54ffff23 	b.cc	ffffff8000084898 <_ZN4core3str5count14do_count_chars17hae3c2a457455db39E+0x20>  // b.lo, b.ul, b.last
ffffff80000848b8:	eb00013f 	cmp	x9, x0
ffffff80000848bc:	9240096a 	and	x10, x11, #0x7
ffffff80000848c0:	aa1f03e8 	mov	x8, xzr
ffffff80000848c4:	54000100 	b.eq	ffffff80000848e4 <_ZN4core3str5count14do_count_chars17hae3c2a457455db39E+0x6c>  // b.none
ffffff80000848c8:	cb090009 	sub	x9, x0, x9
ffffff80000848cc:	aa0003ed 	mov	x13, x0
ffffff80000848d0:	38c015ae 	ldrsb	w14, [x13], #1
ffffff80000848d4:	310105df 	cmn	w14, #0x41
ffffff80000848d8:	9a88d508 	cinc	x8, x8, gt
ffffff80000848dc:	b1000529 	adds	x9, x9, #0x1
ffffff80000848e0:	54ffff83 	b.cc	ffffff80000848d0 <_ZN4core3str5count14do_count_chars17hae3c2a457455db39E+0x58>  // b.lo, b.ul, b.last
ffffff80000848e4:	d343fd69 	lsr	x9, x11, #3
ffffff80000848e8:	8b0c000e 	add	x14, x0, x12
ffffff80000848ec:	b400056a 	cbz	x10, ffffff8000084998 <_ZN4core3str5count14do_count_chars17hae3c2a457455db39E+0x120>
ffffff80000848f0:	927ded6b 	and	x11, x11, #0x7ffffffffffffff8
ffffff80000848f4:	8b0b01cc 	add	x12, x14, x11
ffffff80000848f8:	39c0018b 	ldrsb	w11, [x12]
ffffff80000848fc:	3101057f 	cmn	w11, #0x41
ffffff8000084900:	1a9fd7eb 	cset	w11, gt
ffffff8000084904:	f100055f 	cmp	x10, #0x1
ffffff8000084908:	540004a0 	b.eq	ffffff800008499c <_ZN4core3str5count14do_count_chars17hae3c2a457455db39E+0x124>  // b.none
ffffff800008490c:	39c0058d 	ldrsb	w13, [x12, #1]
ffffff8000084910:	310105bf 	cmn	w13, #0x41
ffffff8000084914:	9a8bd56b 	cinc	x11, x11, gt
ffffff8000084918:	f100095f 	cmp	x10, #0x2
ffffff800008491c:	54000400 	b.eq	ffffff800008499c <_ZN4core3str5count14do_count_chars17hae3c2a457455db39E+0x124>  // b.none
ffffff8000084920:	39c0098d 	ldrsb	w13, [x12, #2]
ffffff8000084924:	310105bf 	cmn	w13, #0x41
ffffff8000084928:	9a8bd56b 	cinc	x11, x11, gt
ffffff800008492c:	f1000d5f 	cmp	x10, #0x3
ffffff8000084930:	54000360 	b.eq	ffffff800008499c <_ZN4core3str5count14do_count_chars17hae3c2a457455db39E+0x124>  // b.none
ffffff8000084934:	39c00d8d 	ldrsb	w13, [x12, #3]
ffffff8000084938:	310105bf 	cmn	w13, #0x41
ffffff800008493c:	9a8bd56b 	cinc	x11, x11, gt
ffffff8000084940:	f100115f 	cmp	x10, #0x4
ffffff8000084944:	540002c0 	b.eq	ffffff800008499c <_ZN4core3str5count14do_count_chars17hae3c2a457455db39E+0x124>  // b.none
ffffff8000084948:	39c0118d 	ldrsb	w13, [x12, #4]
ffffff800008494c:	310105bf 	cmn	w13, #0x41
ffffff8000084950:	9a8bd56b 	cinc	x11, x11, gt
ffffff8000084954:	f100155f 	cmp	x10, #0x5
ffffff8000084958:	54000220 	b.eq	ffffff800008499c <_ZN4core3str5count14do_count_chars17hae3c2a457455db39E+0x124>  // b.none
ffffff800008495c:	39c0158d 	ldrsb	w13, [x12, #5]
ffffff8000084960:	310105bf 	cmn	w13, #0x41
ffffff8000084964:	9a8bd56b 	cinc	x11, x11, gt
ffffff8000084968:	f100195f 	cmp	x10, #0x6
ffffff800008496c:	54000180 	b.eq	ffffff800008499c <_ZN4core3str5count14do_count_chars17hae3c2a457455db39E+0x124>  // b.none
ffffff8000084970:	39c0198a 	ldrsb	w10, [x12, #6]
ffffff8000084974:	3101055f 	cmn	w10, #0x41
ffffff8000084978:	9a8bd56b 	cinc	x11, x11, gt
ffffff800008497c:	14000008 	b	ffffff800008499c <_ZN4core3str5count14do_count_chars17hae3c2a457455db39E+0x124>
ffffff8000084980:	aa1f03e8 	mov	x8, xzr
ffffff8000084984:	6d4523e9 	ldp	d9, d8, [sp, #80]
ffffff8000084988:	aa0803e0 	mov	x0, x8
ffffff800008498c:	fd4023ea 	ldr	d10, [sp, #64]
ffffff8000084990:	910183ff 	add	sp, sp, #0x60
ffffff8000084994:	d65f03c0 	ret
ffffff8000084998:	aa1f03eb 	mov	x11, xzr
ffffff800008499c:	4f00e420 	movi	v0.16b, #0x1
ffffff80000849a0:	8b080168 	add	x8, x11, x8
ffffff80000849a4:	5280180a 	mov	w10, #0xc0                  	// #192
ffffff80000849a8:	b20083eb 	mov	x11, #0x1000100010001       	// #281479271743489
ffffff80000849ac:	1400000c 	b	ffffff80000849dc <_ZN4core3str5count14do_count_chars17hae3c2a457455db39E+0x164>
ffffff80000849b0:	aa1f03f1 	mov	x17, xzr
ffffff80000849b4:	d348fe2f 	lsr	x15, x17, #8
ffffff80000849b8:	92009e30 	and	x16, x17, #0xff00ff00ff00ff
ffffff80000849bc:	8b0e018e 	add	x14, x12, x14
ffffff80000849c0:	cb0d0129 	sub	x9, x9, x13
ffffff80000849c4:	92009def 	and	x15, x15, #0xff00ff00ff00ff
ffffff80000849c8:	8b1001ef 	add	x15, x15, x16
ffffff80000849cc:	9b0b7df0 	mul	x16, x15, x11
ffffff80000849d0:	924005af 	and	x15, x13, #0x3
ffffff80000849d4:	8b50c108 	add	x8, x8, x16, lsr #48
ffffff80000849d8:	b5000d8f 	cbnz	x15, ffffff8000084b88 <_ZN4core3str5count14do_count_chars17hae3c2a457455db39E+0x310>
ffffff80000849dc:	b4fffd49 	cbz	x9, ffffff8000084984 <_ZN4core3str5count14do_count_chars17hae3c2a457455db39E+0x10c>
ffffff80000849e0:	f103013f 	cmp	x9, #0xc0
ffffff80000849e4:	aa0e03ec 	mov	x12, x14
ffffff80000849e8:	9a8a312d 	csel	x13, x9, x10, cc	// cc = lo, ul, last
ffffff80000849ec:	d37df1ae 	lsl	x14, x13, #3
ffffff80000849f0:	f27b15d0 	ands	x16, x14, #0x7e0
ffffff80000849f4:	54fffde0 	b.eq	ffffff80000849b0 <_ZN4core3str5count14do_count_chars17hae3c2a457455db39E+0x138>  // b.none
ffffff80000849f8:	d10081cf 	sub	x15, x14, #0x20
ffffff80000849fc:	f10181ff 	cmp	x15, #0x60
ffffff8000084a00:	54000082 	b.cs	ffffff8000084a10 <_ZN4core3str5count14do_count_chars17hae3c2a457455db39E+0x198>  // b.hs, b.nlast
ffffff8000084a04:	aa1f03f1 	mov	x17, xzr
ffffff8000084a08:	aa0c03ef 	mov	x15, x12
ffffff8000084a0c:	14000044 	b	ffffff8000084b1c <_ZN4core3str5count14do_count_chars17hae3c2a457455db39E+0x2a4>
ffffff8000084a10:	d345fdef 	lsr	x15, x15, #5
ffffff8000084a14:	6f00e401 	movi	v1.2d, #0x0
ffffff8000084a18:	6f00e402 	movi	v2.2d, #0x0
ffffff8000084a1c:	91010180 	add	x0, x12, #0x40
ffffff8000084a20:	910005f1 	add	x17, x15, #0x1
ffffff8000084a24:	927ee632 	and	x18, x17, #0xffffffffffffffc
ffffff8000084a28:	8b12158f 	add	x15, x12, x18, lsl #5
ffffff8000084a2c:	aa1203e1 	mov	x1, x18
ffffff8000084a30:	d1010002 	sub	x2, x0, #0x40
ffffff8000084a34:	4c400c10 	ld4	{v16.2d-v19.2d}, [x0]
ffffff8000084a38:	f1001021 	subs	x1, x1, #0x4
ffffff8000084a3c:	91020000 	add	x0, x0, #0x80
ffffff8000084a40:	4c400c43 	ld4	{v3.2d-v6.2d}, [x2]
ffffff8000084a44:	6e205a07 	mvn	v7.16b, v16.16b
ffffff8000084a48:	6e205a35 	mvn	v21.16b, v17.16b
ffffff8000084a4c:	6e205a5a 	mvn	v26.16b, v18.16b
ffffff8000084a50:	6e205876 	mvn	v22.16b, v3.16b
ffffff8000084a54:	6e205897 	mvn	v23.16b, v4.16b
ffffff8000084a58:	6e2058b8 	mvn	v24.16b, v5.16b
ffffff8000084a5c:	6f7a0614 	ushr	v20.2d, v16.2d, #6
ffffff8000084a60:	6f7a0639 	ushr	v25.2d, v17.2d, #6
ffffff8000084a64:	6f7a065b 	ushr	v27.2d, v18.2d, #6
ffffff8000084a68:	6f7a047c 	ushr	v28.2d, v3.2d, #6
ffffff8000084a6c:	6f7a049d 	ushr	v29.2d, v4.2d, #6
ffffff8000084a70:	6f7a04be 	ushr	v30.2d, v5.2d, #6
ffffff8000084a74:	6f7906d6 	ushr	v22.2d, v22.2d, #7
ffffff8000084a78:	6f7906f7 	ushr	v23.2d, v23.2d, #7
ffffff8000084a7c:	6f790718 	ushr	v24.2d, v24.2d, #7
ffffff8000084a80:	6f7904e7 	ushr	v7.2d, v7.2d, #7
ffffff8000084a84:	6f7906b5 	ushr	v21.2d, v21.2d, #7
ffffff8000084a88:	6f79075a 	ushr	v26.2d, v26.2d, #7
ffffff8000084a8c:	6e205a7f 	mvn	v31.16b, v19.16b
ffffff8000084a90:	6f7a0670 	ushr	v16.2d, v19.2d, #6
ffffff8000084a94:	6e2058d1 	mvn	v17.16b, v6.16b
ffffff8000084a98:	4ebc1ed2 	orr	v18.16b, v22.16b, v28.16b
ffffff8000084a9c:	4ebd1ef3 	orr	v19.16b, v23.16b, v29.16b
ffffff8000084aa0:	4ebe1f16 	orr	v22.16b, v24.16b, v30.16b
ffffff8000084aa4:	4eb41ce7 	orr	v7.16b, v7.16b, v20.16b
ffffff8000084aa8:	4eb91eb4 	orr	v20.16b, v21.16b, v25.16b
ffffff8000084aac:	4ebb1f55 	orr	v21.16b, v26.16b, v27.16b
ffffff8000084ab0:	6f7a04c3 	ushr	v3.2d, v6.2d, #6
ffffff8000084ab4:	6f7907e4 	ushr	v4.2d, v31.2d, #7
ffffff8000084ab8:	6f790625 	ushr	v5.2d, v17.2d, #7
ffffff8000084abc:	4e201e46 	and	v6.16b, v18.16b, v0.16b
ffffff8000084ac0:	4e201e71 	and	v17.16b, v19.16b, v0.16b
ffffff8000084ac4:	4e201ed2 	and	v18.16b, v22.16b, v0.16b
ffffff8000084ac8:	4e201ce7 	and	v7.16b, v7.16b, v0.16b
ffffff8000084acc:	4e201e93 	and	v19.16b, v20.16b, v0.16b
ffffff8000084ad0:	4e201eb4 	and	v20.16b, v21.16b, v0.16b
ffffff8000084ad4:	4eb01c84 	orr	v4.16b, v4.16b, v16.16b
ffffff8000084ad8:	4ea31ca3 	orr	v3.16b, v5.16b, v3.16b
ffffff8000084adc:	4ee184c1 	add	v1.2d, v6.2d, v1.2d
ffffff8000084ae0:	4ef18646 	add	v6.2d, v18.2d, v17.2d
ffffff8000084ae4:	4ee284e2 	add	v2.2d, v7.2d, v2.2d
ffffff8000084ae8:	4ef38685 	add	v5.2d, v20.2d, v19.2d
ffffff8000084aec:	4e201c63 	and	v3.16b, v3.16b, v0.16b
ffffff8000084af0:	4e201c84 	and	v4.16b, v4.16b, v0.16b
ffffff8000084af4:	4ee184c1 	add	v1.2d, v6.2d, v1.2d
ffffff8000084af8:	4ee284a2 	add	v2.2d, v5.2d, v2.2d
ffffff8000084afc:	4ee18461 	add	v1.2d, v3.2d, v1.2d
ffffff8000084b00:	4ee28482 	add	v2.2d, v4.2d, v2.2d
ffffff8000084b04:	54fff961 	b.ne	ffffff8000084a30 <_ZN4core3str5count14do_count_chars17hae3c2a457455db39E+0x1b8>  // b.any
ffffff8000084b08:	4ee18441 	add	v1.2d, v2.2d, v1.2d
ffffff8000084b0c:	eb12023f 	cmp	x17, x18
ffffff8000084b10:	5ef1b821 	addp	d1, v1.2d
ffffff8000084b14:	9e660031 	fmov	x17, d1
ffffff8000084b18:	54fff4e0 	b.eq	ffffff80000849b4 <_ZN4core3str5count14do_count_chars17hae3c2a457455db39E+0x13c>  // b.none
ffffff8000084b1c:	8b100190 	add	x16, x12, x16
ffffff8000084b20:	f9400df2 	ldr	x18, [x15, #24]
ffffff8000084b24:	f9001ff2 	str	x18, [sp, #56]
ffffff8000084b28:	f94009f2 	ldr	x18, [x15, #16]
ffffff8000084b2c:	f9001bf2 	str	x18, [sp, #48]
ffffff8000084b30:	f94005f2 	ldr	x18, [x15, #8]
ffffff8000084b34:	f90017f2 	str	x18, [sp, #40]
ffffff8000084b38:	f84205f2 	ldr	x18, [x15], #32
ffffff8000084b3c:	eb1001ff 	cmp	x15, x16
ffffff8000084b40:	f90013f2 	str	x18, [sp, #32]
ffffff8000084b44:	ad4107e2 	ldp	q2, q1, [sp, #32]
ffffff8000084b48:	6e205823 	mvn	v3.16b, v1.16b
ffffff8000084b4c:	6e205844 	mvn	v4.16b, v2.16b
ffffff8000084b50:	6f7a0421 	ushr	v1.2d, v1.2d, #6
ffffff8000084b54:	6f7a0442 	ushr	v2.2d, v2.2d, #6
ffffff8000084b58:	6f790463 	ushr	v3.2d, v3.2d, #7
ffffff8000084b5c:	6f790484 	ushr	v4.2d, v4.2d, #7
ffffff8000084b60:	4ea21c82 	orr	v2.16b, v4.16b, v2.16b
ffffff8000084b64:	4ea11c61 	orr	v1.16b, v3.16b, v1.16b
ffffff8000084b68:	4e201c21 	and	v1.16b, v1.16b, v0.16b
ffffff8000084b6c:	4e201c42 	and	v2.16b, v2.16b, v0.16b
ffffff8000084b70:	4ee18441 	add	v1.2d, v2.2d, v1.2d
ffffff8000084b74:	5ef1b821 	addp	d1, v1.2d
ffffff8000084b78:	9e660032 	fmov	x18, d1
ffffff8000084b7c:	8b110251 	add	x17, x18, x17
ffffff8000084b80:	54fffd01 	b.ne	ffffff8000084b20 <_ZN4core3str5count14do_count_chars17hae3c2a457455db39E+0x2a8>  // b.any
ffffff8000084b84:	17ffff8c 	b	ffffff80000849b4 <_ZN4core3str5count14do_count_chars17hae3c2a457455db39E+0x13c>
ffffff8000084b88:	927e15a9 	and	x9, x13, #0xfc
ffffff8000084b8c:	f10005ff 	cmp	x15, #0x1
ffffff8000084b90:	8b090d8a 	add	x10, x12, x9, lsl #3
ffffff8000084b94:	f9400149 	ldr	x9, [x10]
ffffff8000084b98:	aa2903eb 	mvn	x11, x9
ffffff8000084b9c:	d347fd6b 	lsr	x11, x11, #7
ffffff8000084ba0:	aa491969 	orr	x9, x11, x9, lsr #6
ffffff8000084ba4:	9200c129 	and	x9, x9, #0x101010101010101
ffffff8000084ba8:	540001e0 	b.eq	ffffff8000084be4 <_ZN4core3str5count14do_count_chars17hae3c2a457455db39E+0x36c>  // b.none
ffffff8000084bac:	f940054b 	ldr	x11, [x10, #8]
ffffff8000084bb0:	f10009ff 	cmp	x15, #0x2
ffffff8000084bb4:	aa2b03ec 	mvn	x12, x11
ffffff8000084bb8:	d347fd8c 	lsr	x12, x12, #7
ffffff8000084bbc:	aa4b198b 	orr	x11, x12, x11, lsr #6
ffffff8000084bc0:	9200c16b 	and	x11, x11, #0x101010101010101
ffffff8000084bc4:	8b090169 	add	x9, x11, x9
ffffff8000084bc8:	540000e0 	b.eq	ffffff8000084be4 <_ZN4core3str5count14do_count_chars17hae3c2a457455db39E+0x36c>  // b.none
ffffff8000084bcc:	f940094a 	ldr	x10, [x10, #16]
ffffff8000084bd0:	aa2a03eb 	mvn	x11, x10
ffffff8000084bd4:	d347fd6b 	lsr	x11, x11, #7
ffffff8000084bd8:	aa4a196a 	orr	x10, x11, x10, lsr #6
ffffff8000084bdc:	9200c14a 	and	x10, x10, #0x101010101010101
ffffff8000084be0:	8b090149 	add	x9, x10, x9
ffffff8000084be4:	d348fd2a 	lsr	x10, x9, #8
ffffff8000084be8:	92009d29 	and	x9, x9, #0xff00ff00ff00ff
ffffff8000084bec:	92009d4a 	and	x10, x10, #0xff00ff00ff00ff
ffffff8000084bf0:	8b090149 	add	x9, x10, x9
ffffff8000084bf4:	b20083ea 	mov	x10, #0x1000100010001       	// #281479271743489
ffffff8000084bf8:	9b0a7d29 	mul	x9, x9, x10
ffffff8000084bfc:	8b49c108 	add	x8, x8, x9, lsr #48
ffffff8000084c00:	6d4523e9 	ldp	d9, d8, [sp, #80]
ffffff8000084c04:	aa0803e0 	mov	x0, x8
ffffff8000084c08:	fd4023ea 	ldr	d10, [sp, #64]
ffffff8000084c0c:	910183ff 	add	sp, sp, #0x60
ffffff8000084c10:	d65f03c0 	ret
ffffff8000084c14:	f100803f 	cmp	x1, #0x20
ffffff8000084c18:	54000082 	b.cs	ffffff8000084c28 <_ZN4core3str5count14do_count_chars17hae3c2a457455db39E+0x3b0>  // b.hs, b.nlast
ffffff8000084c1c:	aa1f03e9 	mov	x9, xzr
ffffff8000084c20:	aa1f03e8 	mov	x8, xzr
ffffff8000084c24:	140000bc 	b	ffffff8000084f14 <_ZN4core3str5count14do_count_chars17hae3c2a457455db39E+0x69c>
ffffff8000084c28:	6f00e400 	movi	v0.2d, #0x0
ffffff8000084c2c:	4f05e7e2 	movi	v2.16b, #0xbf
ffffff8000084c30:	52800028 	mov	w8, #0x1                   	// #1
ffffff8000084c34:	6f00e406 	movi	v6.2d, #0x0
ffffff8000084c38:	6f00e401 	movi	v1.2d, #0x0
ffffff8000084c3c:	927be829 	and	x9, x1, #0xffffffffffffffe0
ffffff8000084c40:	6f00e411 	movi	v17.2d, #0x0
ffffff8000084c44:	6f00e404 	movi	v4.2d, #0x0
ffffff8000084c48:	aa0903ea 	mov	x10, x9
ffffff8000084c4c:	6f00e405 	movi	v5.2d, #0x0
ffffff8000084c50:	6f00e403 	movi	v3.2d, #0x0
ffffff8000084c54:	6f00e415 	movi	v21.2d, #0x0
ffffff8000084c58:	6f00e410 	movi	v16.2d, #0x0
ffffff8000084c5c:	6f00e416 	movi	v22.2d, #0x0
ffffff8000084c60:	6f00e407 	movi	v7.2d, #0x0
ffffff8000084c64:	6f00e417 	movi	v23.2d, #0x0
ffffff8000084c68:	6f00e413 	movi	v19.2d, #0x0
ffffff8000084c6c:	6f00e414 	movi	v20.2d, #0x0
ffffff8000084c70:	6f00e412 	movi	v18.2d, #0x0
ffffff8000084c74:	6f00e418 	movi	v24.2d, #0x0
ffffff8000084c78:	4e080d19 	dup	v25.2d, x8
ffffff8000084c7c:	91004008 	add	x8, x0, #0x10
ffffff8000084c80:	aa0803eb 	mov	x11, x8
ffffff8000084c84:	385f1111 	ldurb	w17, [x8, #-15]
ffffff8000084c88:	385f5112 	ldurb	w18, [x8, #-11]
ffffff8000084c8c:	385f0d6c 	ldrb	w12, [x11, #-16]!
ffffff8000084c90:	aa0b03ee 	mov	x14, x11
ffffff8000084c94:	3940096d 	ldrb	w13, [x11, #2]
ffffff8000084c98:	38404dcf 	ldrb	w15, [x14, #4]!
ffffff8000084c9c:	394009d0 	ldrb	w16, [x14, #2]
ffffff8000084ca0:	39400d62 	ldrb	w2, [x11, #3]
ffffff8000084ca4:	39400dce 	ldrb	w14, [x14, #3]
ffffff8000084ca8:	d370bdad 	lsl	x13, x13, #16
ffffff8000084cac:	aa11218c 	orr	x12, x12, x17, lsl #8
ffffff8000084cb0:	2a1221ef 	orr	w15, w15, w18, lsl #8
ffffff8000084cb4:	53103e10 	lsl	w16, w16, #16
ffffff8000084cb8:	f100814a 	subs	x10, x10, #0x20
ffffff8000084cbc:	aa0261ad 	orr	x13, x13, x2, lsl #24
ffffff8000084cc0:	2a0e620e 	orr	w14, w16, w14, lsl #24
ffffff8000084cc4:	aa0c01ac 	orr	x12, x13, x12
ffffff8000084cc8:	2a0f01cd 	orr	w13, w14, w15
ffffff8000084ccc:	aa0d818c 	orr	x12, x12, x13, lsl #32
ffffff8000084cd0:	f9000bec 	str	x12, [sp, #16]
ffffff8000084cd4:	aa0b03ec 	mov	x12, x11
ffffff8000084cd8:	38408d8d 	ldrb	w13, [x12, #8]!
ffffff8000084cdc:	39400d8e 	ldrb	w14, [x12, #3]
ffffff8000084ce0:	3940098f 	ldrb	w15, [x12, #2]
ffffff8000084ce4:	38404d90 	ldrb	w16, [x12, #4]!
ffffff8000084ce8:	39400991 	ldrb	w17, [x12, #2]
ffffff8000084cec:	39402572 	ldrb	w18, [x11, #9]
ffffff8000084cf0:	3940356b 	ldrb	w11, [x11, #13]
ffffff8000084cf4:	39400d8c 	ldrb	w12, [x12, #3]
ffffff8000084cf8:	d370bdef 	lsl	x15, x15, #16
ffffff8000084cfc:	53103e31 	lsl	w17, w17, #16
ffffff8000084d00:	aa1221ad 	orr	x13, x13, x18, lsl #8
ffffff8000084d04:	2a0b220b 	orr	w11, w16, w11, lsl #8
ffffff8000084d08:	aa0e61ee 	orr	x14, x15, x14, lsl #24
ffffff8000084d0c:	2a0c622c 	orr	w12, w17, w12, lsl #24
ffffff8000084d10:	aa0d01cd 	orr	x13, x14, x13
ffffff8000084d14:	2a0b018b 	orr	w11, w12, w11
ffffff8000084d18:	aa0b81ab 	orr	x11, x13, x11, lsl #32
ffffff8000084d1c:	f9000feb 	str	x11, [sp, #24]
ffffff8000084d20:	aa0803eb 	mov	x11, x8
ffffff8000084d24:	3940090d 	ldrb	w13, [x8, #2]
ffffff8000084d28:	38404d6e 	ldrb	w14, [x11, #4]!
ffffff8000084d2c:	3940096f 	ldrb	w15, [x11, #2]
ffffff8000084d30:	3940050c 	ldrb	w12, [x8, #1]
ffffff8000084d34:	39400110 	ldrb	w16, [x8]
ffffff8000084d38:	39400d11 	ldrb	w17, [x8, #3]
ffffff8000084d3c:	39401512 	ldrb	w18, [x8, #5]
ffffff8000084d40:	39400d6b 	ldrb	w11, [x11, #3]
ffffff8000084d44:	d370bdad 	lsl	x13, x13, #16
ffffff8000084d48:	53103def 	lsl	w15, w15, #16
ffffff8000084d4c:	aa0c220c 	orr	x12, x16, x12, lsl #8
ffffff8000084d50:	2a1221ce 	orr	w14, w14, w18, lsl #8
ffffff8000084d54:	3dc007fa 	ldr	q26, [sp, #16]
ffffff8000084d58:	aa1161ad 	orr	x13, x13, x17, lsl #24
ffffff8000084d5c:	2a0b61eb 	orr	w11, w15, w11, lsl #24
ffffff8000084d60:	4e22375a 	cmgt	v26.16b, v26.16b, v2.16b
ffffff8000084d64:	aa0c01ac 	orr	x12, x13, x12
ffffff8000084d68:	2a0e016b 	orr	w11, w11, w14
ffffff8000084d6c:	aa0b818b 	orr	x11, x12, x11, lsl #32
ffffff8000084d70:	aa0803ec 	mov	x12, x8
ffffff8000084d74:	6f08a75b 	uxtl2	v27.8h, v26.16b
ffffff8000084d78:	2f08a75a 	uxtl	v26.8h, v26.8b
ffffff8000084d7c:	f90003eb 	str	x11, [sp]
ffffff8000084d80:	38408d8b 	ldrb	w11, [x12, #8]!
ffffff8000084d84:	39400d8d 	ldrb	w13, [x12, #3]
ffffff8000084d88:	3940098e 	ldrb	w14, [x12, #2]
ffffff8000084d8c:	38404d8f 	ldrb	w15, [x12, #4]!
ffffff8000084d90:	39400990 	ldrb	w16, [x12, #2]
ffffff8000084d94:	39402511 	ldrb	w17, [x8, #9]
ffffff8000084d98:	39403512 	ldrb	w18, [x8, #13]
ffffff8000084d9c:	39400d8c 	ldrb	w12, [x12, #3]
ffffff8000084da0:	d370bdce 	lsl	x14, x14, #16
ffffff8000084da4:	6f10a77c 	uxtl2	v28.4s, v27.8h
ffffff8000084da8:	53103e10 	lsl	w16, w16, #16
ffffff8000084dac:	aa11216b 	orr	x11, x11, x17, lsl #8
ffffff8000084db0:	2a1221ef 	orr	w15, w15, w18, lsl #8
ffffff8000084db4:	aa0d61cd 	orr	x13, x14, x13, lsl #24
ffffff8000084db8:	2f10a77b 	uxtl	v27.4s, v27.4h
ffffff8000084dbc:	2f10a75e 	uxtl	v30.4s, v26.4h
ffffff8000084dc0:	2a0c620c 	orr	w12, w16, w12, lsl #24
ffffff8000084dc4:	6f20a79d 	uxtl2	v29.2d, v28.4s
ffffff8000084dc8:	6f10a75a 	uxtl2	v26.4s, v26.8h
ffffff8000084dcc:	aa0b01ab 	orr	x11, x13, x11
ffffff8000084dd0:	2f20a79c 	uxtl	v28.2d, v28.2s
ffffff8000084dd4:	91008108 	add	x8, x8, #0x20
ffffff8000084dd8:	2a0f018c 	orr	w12, w12, w15
ffffff8000084ddc:	6f20a768 	uxtl2	v8.2d, v27.4s
ffffff8000084de0:	6f20a7c9 	uxtl2	v9.2d, v30.4s
ffffff8000084de4:	aa0c816b 	orr	x11, x11, x12, lsl #32
ffffff8000084de8:	4e391fbd 	and	v29.16b, v29.16b, v25.16b
ffffff8000084dec:	6f20a74a 	uxtl2	v10.2d, v26.4s
ffffff8000084df0:	2f20a75a 	uxtl	v26.2d, v26.2s
ffffff8000084df4:	2f20a77b 	uxtl	v27.2d, v27.2s
ffffff8000084df8:	4e391f9c 	and	v28.16b, v28.16b, v25.16b
ffffff8000084dfc:	f90007eb 	str	x11, [sp, #8]
ffffff8000084e00:	4e391d08 	and	v8.16b, v8.16b, v25.16b
ffffff8000084e04:	4e391d29 	and	v9.16b, v9.16b, v25.16b
ffffff8000084e08:	3dc003ff 	ldr	q31, [sp]
ffffff8000084e0c:	4efd86b5 	add	v21.2d, v21.2d, v29.2d
ffffff8000084e10:	4e391d4a 	and	v10.16b, v10.16b, v25.16b
ffffff8000084e14:	4e391f5a 	and	v26.16b, v26.16b, v25.16b
ffffff8000084e18:	4e391f7b 	and	v27.16b, v27.16b, v25.16b
ffffff8000084e1c:	4efc8463 	add	v3.2d, v3.2d, v28.2d
ffffff8000084e20:	4e2237ff 	cmgt	v31.16b, v31.16b, v2.16b
ffffff8000084e24:	4ee884a5 	add	v5.2d, v5.2d, v8.2d
ffffff8000084e28:	2f20a7de 	uxtl	v30.2d, v30.2s
ffffff8000084e2c:	4eea8631 	add	v17.2d, v17.2d, v10.2d
ffffff8000084e30:	4ee984c6 	add	v6.2d, v6.2d, v9.2d
ffffff8000084e34:	4efa8421 	add	v1.2d, v1.2d, v26.2d
ffffff8000084e38:	4efb8484 	add	v4.2d, v4.2d, v27.2d
ffffff8000084e3c:	6f08a7fd 	uxtl2	v29.8h, v31.16b
ffffff8000084e40:	2f08a7ff 	uxtl	v31.8h, v31.8b
ffffff8000084e44:	4e391fde 	and	v30.16b, v30.16b, v25.16b
ffffff8000084e48:	6f10a7bc 	uxtl2	v28.4s, v29.8h
ffffff8000084e4c:	6f10a7e8 	uxtl2	v8.4s, v31.8h
ffffff8000084e50:	2f10a7bd 	uxtl	v29.4s, v29.4h
ffffff8000084e54:	2f10a7fa 	uxtl	v26.4s, v31.4h
ffffff8000084e58:	4efe8400 	add	v0.2d, v0.2d, v30.2d
ffffff8000084e5c:	2f20a79b 	uxtl	v27.2d, v28.2s
ffffff8000084e60:	6f20a79c 	uxtl2	v28.2d, v28.4s
ffffff8000084e64:	2f20a7bf 	uxtl	v31.2d, v29.2s
ffffff8000084e68:	6f20a509 	uxtl2	v9.2d, v8.4s
ffffff8000084e6c:	6f20a7bd 	uxtl2	v29.2d, v29.4s
ffffff8000084e70:	2f20a74a 	uxtl	v10.2d, v26.2s
ffffff8000084e74:	6f20a75a 	uxtl2	v26.2d, v26.4s
ffffff8000084e78:	2f20a508 	uxtl	v8.2d, v8.2s
ffffff8000084e7c:	4e391f7b 	and	v27.16b, v27.16b, v25.16b
ffffff8000084e80:	4e391f9c 	and	v28.16b, v28.16b, v25.16b
ffffff8000084e84:	4e391fff 	and	v31.16b, v31.16b, v25.16b
ffffff8000084e88:	4e391d29 	and	v9.16b, v9.16b, v25.16b
ffffff8000084e8c:	4e391fbd 	and	v29.16b, v29.16b, v25.16b
ffffff8000084e90:	4e391d4a 	and	v10.16b, v10.16b, v25.16b
ffffff8000084e94:	4e391f5a 	and	v26.16b, v26.16b, v25.16b
ffffff8000084e98:	4e391d08 	and	v8.16b, v8.16b, v25.16b
ffffff8000084e9c:	4efc8718 	add	v24.2d, v24.2d, v28.2d
ffffff8000084ea0:	4efb8652 	add	v18.2d, v18.2d, v27.2d
ffffff8000084ea4:	4eff8673 	add	v19.2d, v19.2d, v31.2d
ffffff8000084ea8:	4efd8694 	add	v20.2d, v20.2d, v29.2d
ffffff8000084eac:	4ee986f7 	add	v23.2d, v23.2d, v9.2d
ffffff8000084eb0:	4eea8610 	add	v16.2d, v16.2d, v10.2d
ffffff8000084eb4:	4ee884e7 	add	v7.2d, v7.2d, v8.2d
ffffff8000084eb8:	4efa86d6 	add	v22.2d, v22.2d, v26.2d
ffffff8000084ebc:	54ffee21 	b.ne	ffffff8000084c80 <_ZN4core3str5count14do_count_chars17hae3c2a457455db39E+0x408>  // b.any
ffffff8000084ec0:	4ef186e2 	add	v2.2d, v23.2d, v17.2d
ffffff8000084ec4:	4ef58711 	add	v17.2d, v24.2d, v21.2d
ffffff8000084ec8:	eb09003f 	cmp	x1, x9
ffffff8000084ecc:	4ee686c6 	add	v6.2d, v22.2d, v6.2d
ffffff8000084ed0:	4ee08600 	add	v0.2d, v16.2d, v0.2d
ffffff8000084ed4:	4ee48664 	add	v4.2d, v19.2d, v4.2d
ffffff8000084ed8:	4ee58685 	add	v5.2d, v20.2d, v5.2d
ffffff8000084edc:	4ee184e1 	add	v1.2d, v7.2d, v1.2d
ffffff8000084ee0:	4ee38643 	add	v3.2d, v18.2d, v3.2d
ffffff8000084ee4:	4ef18442 	add	v2.2d, v2.2d, v17.2d
ffffff8000084ee8:	4ee48400 	add	v0.2d, v0.2d, v4.2d
ffffff8000084eec:	4ee38421 	add	v1.2d, v1.2d, v3.2d
ffffff8000084ef0:	4ee584c3 	add	v3.2d, v6.2d, v5.2d
ffffff8000084ef4:	4ee18400 	add	v0.2d, v0.2d, v1.2d
ffffff8000084ef8:	4ee28461 	add	v1.2d, v3.2d, v2.2d
ffffff8000084efc:	4ee18400 	add	v0.2d, v0.2d, v1.2d
ffffff8000084f00:	5ef1b800 	addp	d0, v0.2d
ffffff8000084f04:	9e660008 	fmov	x8, d0
ffffff8000084f08:	54ffd3e0 	b.eq	ffffff8000084984 <_ZN4core3str5count14do_count_chars17hae3c2a457455db39E+0x10c>  // b.none
ffffff8000084f0c:	f27d043f 	tst	x1, #0x18
ffffff8000084f10:	54000740 	b.eq	ffffff8000084ff8 <_ZN4core3str5count14do_count_chars17hae3c2a457455db39E+0x780>  // b.none
ffffff8000084f14:	6f00e400 	movi	v0.2d, #0x0
ffffff8000084f18:	6f00e401 	movi	v1.2d, #0x0
ffffff8000084f1c:	aa0903ea 	mov	x10, x9
ffffff8000084f20:	0f05e7e2 	movi	v2.8b, #0xbf
ffffff8000084f24:	6f00e403 	movi	v3.2d, #0x0
ffffff8000084f28:	927df029 	and	x9, x1, #0xfffffffffffffff8
ffffff8000084f2c:	6f00e404 	movi	v4.2d, #0x0
ffffff8000084f30:	4e081d00 	mov	v0.d[0], x8
ffffff8000084f34:	52800028 	mov	w8, #0x1                   	// #1
ffffff8000084f38:	4e080d05 	dup	v5.2d, x8
ffffff8000084f3c:	cb090148 	sub	x8, x10, x9
ffffff8000084f40:	8b0a000a 	add	x10, x0, x10
ffffff8000084f44:	aa0a03ed 	mov	x13, x10
ffffff8000084f48:	3940094c 	ldrb	w12, [x10, #2]
ffffff8000084f4c:	3940054b 	ldrb	w11, [x10, #1]
ffffff8000084f50:	38404dae 	ldrb	w14, [x13, #4]!
ffffff8000084f54:	394009af 	ldrb	w15, [x13, #2]
ffffff8000084f58:	39400150 	ldrb	w16, [x10]
ffffff8000084f5c:	39400d51 	ldrb	w17, [x10, #3]
ffffff8000084f60:	d370bd8c 	lsl	x12, x12, #16
ffffff8000084f64:	39401552 	ldrb	w18, [x10, #5]
ffffff8000084f68:	39400dad 	ldrb	w13, [x13, #3]
ffffff8000084f6c:	53103def 	lsl	w15, w15, #16
ffffff8000084f70:	aa0b220b 	orr	x11, x16, x11, lsl #8
ffffff8000084f74:	aa11618c 	orr	x12, x12, x17, lsl #24
ffffff8000084f78:	b1002108 	adds	x8, x8, #0x8
ffffff8000084f7c:	2a1221ce 	orr	w14, w14, w18, lsl #8
ffffff8000084f80:	2a0d61ed 	orr	w13, w15, w13, lsl #24
ffffff8000084f84:	9100214a 	add	x10, x10, #0x8
ffffff8000084f88:	aa0b018b 	orr	x11, x12, x11
ffffff8000084f8c:	2a0e01ac 	orr	w12, w13, w14
ffffff8000084f90:	aa0c816b 	orr	x11, x11, x12, lsl #32
ffffff8000084f94:	9e670166 	fmov	d6, x11
ffffff8000084f98:	0e2234c6 	cmgt	v6.8b, v6.8b, v2.8b
ffffff8000084f9c:	2f08a4c6 	uxtl	v6.8h, v6.8b
ffffff8000084fa0:	6f10a4c7 	uxtl2	v7.4s, v6.8h
ffffff8000084fa4:	2f10a4c6 	uxtl	v6.4s, v6.4h
ffffff8000084fa8:	6f20a4f0 	uxtl2	v16.2d, v7.4s
ffffff8000084fac:	2f20a4d1 	uxtl	v17.2d, v6.2s
ffffff8000084fb0:	6f20a4c6 	uxtl2	v6.2d, v6.4s
ffffff8000084fb4:	2f20a4e7 	uxtl	v7.2d, v7.2s
ffffff8000084fb8:	4e251e10 	and	v16.16b, v16.16b, v5.16b
ffffff8000084fbc:	4e251e31 	and	v17.16b, v17.16b, v5.16b
ffffff8000084fc0:	4e251cc6 	and	v6.16b, v6.16b, v5.16b
ffffff8000084fc4:	4e251ce7 	and	v7.16b, v7.16b, v5.16b
ffffff8000084fc8:	4ef08484 	add	v4.2d, v4.2d, v16.2d
ffffff8000084fcc:	4ee68421 	add	v1.2d, v1.2d, v6.2d
ffffff8000084fd0:	4ef18400 	add	v0.2d, v0.2d, v17.2d
ffffff8000084fd4:	4ee78463 	add	v3.2d, v3.2d, v7.2d
ffffff8000084fd8:	54fffb61 	b.ne	ffffff8000084f44 <_ZN4core3str5count14do_count_chars17hae3c2a457455db39E+0x6cc>  // b.any
ffffff8000084fdc:	4ee38400 	add	v0.2d, v0.2d, v3.2d
ffffff8000084fe0:	4ee48421 	add	v1.2d, v1.2d, v4.2d
ffffff8000084fe4:	eb09003f 	cmp	x1, x9
ffffff8000084fe8:	4ee18400 	add	v0.2d, v0.2d, v1.2d
ffffff8000084fec:	5ef1b800 	addp	d0, v0.2d
ffffff8000084ff0:	9e660008 	fmov	x8, d0
ffffff8000084ff4:	54ffcc80 	b.eq	ffffff8000084984 <_ZN4core3str5count14do_count_chars17hae3c2a457455db39E+0x10c>  // b.none
ffffff8000084ff8:	cb09002a 	sub	x10, x1, x9
ffffff8000084ffc:	8b090009 	add	x9, x0, x9
ffffff8000085000:	38c0152b 	ldrsb	w11, [x9], #1
ffffff8000085004:	3101057f 	cmn	w11, #0x41
ffffff8000085008:	9a88d508 	cinc	x8, x8, gt
ffffff800008500c:	f100054a 	subs	x10, x10, #0x1
ffffff8000085010:	54ffff81 	b.ne	ffffff8000085000 <_ZN4core3str5count14do_count_chars17hae3c2a457455db39E+0x788>  // b.any
ffffff8000085014:	17fffe5c 	b	ffffff8000084984 <_ZN4core3str5count14do_count_chars17hae3c2a457455db39E+0x10c>

ffffff8000085018 <_ZN4core3str8converts9from_utf817hf38ca99ab34556a4E>:
ffffff8000085018:	f1003c29 	subs	x9, x1, #0xf
ffffff800008501c:	9a8933ea 	csel	x10, xzr, x9, cc	// cc = lo, ul, last
ffffff8000085020:	b4001021 	cbz	x1, ffffff8000085224 <_ZN4core3str8converts9from_utf817hf38ca99ab34556a4E+0x20c>
ffffff8000085024:	91001c0b 	add	x11, x0, #0x7
ffffff8000085028:	aa1f03e9 	mov	x9, xzr
ffffff800008502c:	d000000c 	adrp	x12, ffffff8000087000 <TCR_EL1_VALUE+0x1968>
ffffff8000085030:	9111c98c 	add	x12, x12, #0x472
ffffff8000085034:	927df16b 	and	x11, x11, #0xfffffffffffffff8
ffffff8000085038:	cb00016b 	sub	x11, x11, x0
ffffff800008503c:	14000004 	b	ffffff800008504c <_ZN4core3str8converts9from_utf817hf38ca99ab34556a4E+0x34>
ffffff8000085040:	910005a9 	add	x9, x13, #0x1
ffffff8000085044:	eb01013f 	cmp	x9, x1
ffffff8000085048:	54000ee2 	b.cs	ffffff8000085224 <_ZN4core3str8converts9from_utf817hf38ca99ab34556a4E+0x20c>  // b.hs, b.nlast
ffffff800008504c:	38e9680d 	ldrsb	w13, [x0, x9]
ffffff8000085050:	37f802cd 	tbnz	w13, #31, ffffff80000850a8 <_ZN4core3str8converts9from_utf817hf38ca99ab34556a4E+0x90>
ffffff8000085054:	4b09016d 	sub	w13, w11, w9
ffffff8000085058:	f24009bf 	tst	x13, #0x7
ffffff800008505c:	54000080 	b.eq	ffffff800008506c <_ZN4core3str8converts9from_utf817hf38ca99ab34556a4E+0x54>  // b.none
ffffff8000085060:	91000529 	add	x9, x9, #0x1
ffffff8000085064:	17fffff8 	b	ffffff8000085044 <_ZN4core3str8converts9from_utf817hf38ca99ab34556a4E+0x2c>
ffffff8000085068:	91004129 	add	x9, x9, #0x10
ffffff800008506c:	eb0a013f 	cmp	x9, x10
ffffff8000085070:	540000c2 	b.cs	ffffff8000085088 <_ZN4core3str8converts9from_utf817hf38ca99ab34556a4E+0x70>  // b.hs, b.nlast
ffffff8000085074:	8b09000d 	add	x13, x0, x9
ffffff8000085078:	a94035ae 	ldp	x14, x13, [x13]
ffffff800008507c:	aa0e01ad 	orr	x13, x13, x14
ffffff8000085080:	f201c1bf 	tst	x13, #0x8080808080808080
ffffff8000085084:	54ffff20 	b.eq	ffffff8000085068 <_ZN4core3str8converts9from_utf817hf38ca99ab34556a4E+0x50>  // b.none
ffffff8000085088:	eb01013f 	cmp	x9, x1
ffffff800008508c:	54fffdc2 	b.cs	ffffff8000085044 <_ZN4core3str8converts9from_utf817hf38ca99ab34556a4E+0x2c>  // b.hs, b.nlast
ffffff8000085090:	38e9680d 	ldrsb	w13, [x0, x9]
ffffff8000085094:	37fffd8d 	tbnz	w13, #31, ffffff8000085044 <_ZN4core3str8converts9from_utf817hf38ca99ab34556a4E+0x2c>
ffffff8000085098:	91000529 	add	x9, x9, #0x1
ffffff800008509c:	eb09003f 	cmp	x1, x9
ffffff80000850a0:	54ffff81 	b.ne	ffffff8000085090 <_ZN4core3str8converts9from_utf817hf38ca99ab34556a4E+0x78>  // b.any
ffffff80000850a4:	14000060 	b	ffffff8000085224 <_ZN4core3str8converts9from_utf817hf38ca99ab34556a4E+0x20c>
ffffff80000850a8:	92401dae 	and	x14, x13, #0xff
ffffff80000850ac:	12001dad 	and	w13, w13, #0xff
ffffff80000850b0:	386e698e 	ldrb	w14, [x12, x14]
ffffff80000850b4:	710011df 	cmp	w14, #0x4
ffffff80000850b8:	54000300 	b.eq	ffffff8000085118 <_ZN4core3str8converts9from_utf817hf38ca99ab34556a4E+0x100>  // b.none
ffffff80000850bc:	71000ddf 	cmp	w14, #0x3
ffffff80000850c0:	54000140 	b.eq	ffffff80000850e8 <_ZN4core3str8converts9from_utf817hf38ca99ab34556a4E+0xd0>  // b.none
ffffff80000850c4:	710009df 	cmp	w14, #0x2
ffffff80000850c8:	54000c01 	b.ne	ffffff8000085248 <_ZN4core3str8converts9from_utf817hf38ca99ab34556a4E+0x230>  // b.any
ffffff80000850cc:	9100052d 	add	x13, x9, #0x1
ffffff80000850d0:	eb0101bf 	cmp	x13, x1
ffffff80000850d4:	54000ae2 	b.cs	ffffff8000085230 <_ZN4core3str8converts9from_utf817hf38ca99ab34556a4E+0x218>  // b.hs, b.nlast
ffffff80000850d8:	38ed680e 	ldrsb	w14, [x0, x13]
ffffff80000850dc:	310105df 	cmn	w14, #0x41
ffffff80000850e0:	54fffb0d 	b.le	ffffff8000085040 <_ZN4core3str8converts9from_utf817hf38ca99ab34556a4E+0x28>
ffffff80000850e4:	14000059 	b	ffffff8000085248 <_ZN4core3str8converts9from_utf817hf38ca99ab34556a4E+0x230>
ffffff80000850e8:	9100052e 	add	x14, x9, #0x1
ffffff80000850ec:	eb0101df 	cmp	x14, x1
ffffff80000850f0:	54000a02 	b.cs	ffffff8000085230 <_ZN4core3str8converts9from_utf817hf38ca99ab34556a4E+0x218>  // b.hs, b.nlast
ffffff80000850f4:	386e680e 	ldrb	w14, [x0, x14]
ffffff80000850f8:	710381bf 	cmp	w13, #0xe0
ffffff80000850fc:	54000260 	b.eq	ffffff8000085148 <_ZN4core3str8converts9from_utf817hf38ca99ab34556a4E+0x130>  // b.none
ffffff8000085100:	13001dce 	sxtb	w14, w14
ffffff8000085104:	7103b5bf 	cmp	w13, #0xed
ffffff8000085108:	54000301 	b.ne	ffffff8000085168 <_ZN4core3str8converts9from_utf817hf38ca99ab34556a4E+0x150>  // b.any
ffffff800008510c:	310185df 	cmn	w14, #0x61
ffffff8000085110:	540006ed 	b.le	ffffff80000851ec <_ZN4core3str8converts9from_utf817hf38ca99ab34556a4E+0x1d4>
ffffff8000085114:	1400004d 	b	ffffff8000085248 <_ZN4core3str8converts9from_utf817hf38ca99ab34556a4E+0x230>
ffffff8000085118:	9100052e 	add	x14, x9, #0x1
ffffff800008511c:	eb0101df 	cmp	x14, x1
ffffff8000085120:	54000882 	b.cs	ffffff8000085230 <_ZN4core3str8converts9from_utf817hf38ca99ab34556a4E+0x218>  // b.hs, b.nlast
ffffff8000085124:	386e680e 	ldrb	w14, [x0, x14]
ffffff8000085128:	7103c1bf 	cmp	w13, #0xf0
ffffff800008512c:	54000160 	b.eq	ffffff8000085158 <_ZN4core3str8converts9from_utf817hf38ca99ab34556a4E+0x140>  // b.none
ffffff8000085130:	13001dce 	sxtb	w14, w14
ffffff8000085134:	7103d1bf 	cmp	w13, #0xf4
ffffff8000085138:	54000241 	b.ne	ffffff8000085180 <_ZN4core3str8converts9from_utf817hf38ca99ab34556a4E+0x168>  // b.any
ffffff800008513c:	3101c5df 	cmn	w14, #0x71
ffffff8000085140:	540002ed 	b.le	ffffff800008519c <_ZN4core3str8converts9from_utf817hf38ca99ab34556a4E+0x184>
ffffff8000085144:	14000041 	b	ffffff8000085248 <_ZN4core3str8converts9from_utf817hf38ca99ab34556a4E+0x230>
ffffff8000085148:	121b09cd 	and	w13, w14, #0xe0
ffffff800008514c:	710281bf 	cmp	w13, #0xa0
ffffff8000085150:	540004e0 	b.eq	ffffff80000851ec <_ZN4core3str8converts9from_utf817hf38ca99ab34556a4E+0x1d4>  // b.none
ffffff8000085154:	1400003d 	b	ffffff8000085248 <_ZN4core3str8converts9from_utf817hf38ca99ab34556a4E+0x230>
ffffff8000085158:	510241cd 	sub	w13, w14, #0x90
ffffff800008515c:	7100c1bf 	cmp	w13, #0x30
ffffff8000085160:	540001e3 	b.cc	ffffff800008519c <_ZN4core3str8converts9from_utf817hf38ca99ab34556a4E+0x184>  // b.lo, b.ul, b.last
ffffff8000085164:	14000039 	b	ffffff8000085248 <_ZN4core3str8converts9from_utf817hf38ca99ab34556a4E+0x230>
ffffff8000085168:	510385af 	sub	w15, w13, #0xe1
ffffff800008516c:	710031ff 	cmp	w15, #0xc
ffffff8000085170:	54000302 	b.cs	ffffff80000851d0 <_ZN4core3str8converts9from_utf817hf38ca99ab34556a4E+0x1b8>  // b.hs, b.nlast
ffffff8000085174:	310101df 	cmn	w14, #0x40
ffffff8000085178:	540003ab 	b.lt	ffffff80000851ec <_ZN4core3str8converts9from_utf817hf38ca99ab34556a4E+0x1d4>  // b.tstop
ffffff800008517c:	14000033 	b	ffffff8000085248 <_ZN4core3str8converts9from_utf817hf38ca99ab34556a4E+0x230>
ffffff8000085180:	5103c5ad 	sub	w13, w13, #0xf1
ffffff8000085184:	710009bf 	cmp	w13, #0x2
ffffff8000085188:	5280002d 	mov	w13, #0x1                   	// #1
ffffff800008518c:	54000608 	b.hi	ffffff800008524c <_ZN4core3str8converts9from_utf817hf38ca99ab34556a4E+0x234>  // b.pmore
ffffff8000085190:	310101df 	cmn	w14, #0x40
ffffff8000085194:	5280002e 	mov	w14, #0x1                   	// #1
ffffff8000085198:	540003aa 	b.ge	ffffff800008520c <_ZN4core3str8converts9from_utf817hf38ca99ab34556a4E+0x1f4>  // b.tcont
ffffff800008519c:	9100092d 	add	x13, x9, #0x2
ffffff80000851a0:	eb0101bf 	cmp	x13, x1
ffffff80000851a4:	54000462 	b.cs	ffffff8000085230 <_ZN4core3str8converts9from_utf817hf38ca99ab34556a4E+0x218>  // b.hs, b.nlast
ffffff80000851a8:	38ed680d 	ldrsb	w13, [x0, x13]
ffffff80000851ac:	310105bf 	cmn	w13, #0x41
ffffff80000851b0:	540002ac 	b.gt	ffffff8000085204 <_ZN4core3str8converts9from_utf817hf38ca99ab34556a4E+0x1ec>
ffffff80000851b4:	91000d2d 	add	x13, x9, #0x3
ffffff80000851b8:	eb0101bf 	cmp	x13, x1
ffffff80000851bc:	540003a2 	b.cs	ffffff8000085230 <_ZN4core3str8converts9from_utf817hf38ca99ab34556a4E+0x218>  // b.hs, b.nlast
ffffff80000851c0:	38ed680e 	ldrsb	w14, [x0, x13]
ffffff80000851c4:	310101df 	cmn	w14, #0x40
ffffff80000851c8:	54fff3cb 	b.lt	ffffff8000085040 <_ZN4core3str8converts9from_utf817hf38ca99ab34556a4E+0x28>  // b.tstop
ffffff80000851cc:	14000027 	b	ffffff8000085268 <_ZN4core3str8converts9from_utf817hf38ca99ab34556a4E+0x250>
ffffff80000851d0:	121f19ad 	and	w13, w13, #0xfe
ffffff80000851d4:	7103b9bf 	cmp	w13, #0xee
ffffff80000851d8:	5280002d 	mov	w13, #0x1                   	// #1
ffffff80000851dc:	54000381 	b.ne	ffffff800008524c <_ZN4core3str8converts9from_utf817hf38ca99ab34556a4E+0x234>  // b.any
ffffff80000851e0:	310101df 	cmn	w14, #0x40
ffffff80000851e4:	5280002e 	mov	w14, #0x1                   	// #1
ffffff80000851e8:	5400012a 	b.ge	ffffff800008520c <_ZN4core3str8converts9from_utf817hf38ca99ab34556a4E+0x1f4>  // b.tcont
ffffff80000851ec:	9100092d 	add	x13, x9, #0x2
ffffff80000851f0:	eb0101bf 	cmp	x13, x1
ffffff80000851f4:	540001e2 	b.cs	ffffff8000085230 <_ZN4core3str8converts9from_utf817hf38ca99ab34556a4E+0x218>  // b.hs, b.nlast
ffffff80000851f8:	38ed680e 	ldrsb	w14, [x0, x13]
ffffff80000851fc:	310105df 	cmn	w14, #0x41
ffffff8000085200:	54fff20d 	b.le	ffffff8000085040 <_ZN4core3str8converts9from_utf817hf38ca99ab34556a4E+0x28>
ffffff8000085204:	5280002e 	mov	w14, #0x1                   	// #1
ffffff8000085208:	5280004d 	mov	w13, #0x2                   	// #2
ffffff800008520c:	f9000509 	str	x9, [x8, #8]
ffffff8000085210:	52800029 	mov	w9, #0x1                   	// #1
ffffff8000085214:	3900410e 	strb	w14, [x8, #16]
ffffff8000085218:	3900450d 	strb	w13, [x8, #17]
ffffff800008521c:	f9000109 	str	x9, [x8]
ffffff8000085220:	d65f03c0 	ret
ffffff8000085224:	a9008500 	stp	x0, x1, [x8, #8]
ffffff8000085228:	f900011f 	str	xzr, [x8]
ffffff800008522c:	d65f03c0 	ret
ffffff8000085230:	f9000509 	str	x9, [x8, #8]
ffffff8000085234:	52800029 	mov	w9, #0x1                   	// #1
ffffff8000085238:	3900411f 	strb	wzr, [x8, #16]
ffffff800008523c:	3900450d 	strb	w13, [x8, #17]
ffffff8000085240:	f9000109 	str	x9, [x8]
ffffff8000085244:	d65f03c0 	ret
ffffff8000085248:	5280002d 	mov	w13, #0x1                   	// #1
ffffff800008524c:	5280002e 	mov	w14, #0x1                   	// #1
ffffff8000085250:	f9000509 	str	x9, [x8, #8]
ffffff8000085254:	52800029 	mov	w9, #0x1                   	// #1
ffffff8000085258:	3900410e 	strb	w14, [x8, #16]
ffffff800008525c:	3900450d 	strb	w13, [x8, #17]
ffffff8000085260:	f9000109 	str	x9, [x8]
ffffff8000085264:	d65f03c0 	ret
ffffff8000085268:	5280002e 	mov	w14, #0x1                   	// #1
ffffff800008526c:	5280006d 	mov	w13, #0x3                   	// #3
ffffff8000085270:	f9000509 	str	x9, [x8, #8]
ffffff8000085274:	52800029 	mov	w9, #0x1                   	// #1
ffffff8000085278:	3900410e 	strb	w14, [x8, #16]
ffffff800008527c:	3900450d 	strb	w13, [x8, #17]
ffffff8000085280:	f9000109 	str	x9, [x8]
ffffff8000085284:	d65f03c0 	ret

ffffff8000085288 <_ZN4core6option13expect_failed17hb35fc25fa37940a7E>:
ffffff8000085288:	d100c3ff 	sub	sp, sp, #0x30
ffffff800008528c:	a9027bfd 	stp	x29, x30, [sp, #32]
ffffff8000085290:	910083fd 	add	x29, sp, #0x20
ffffff8000085294:	a90007e0 	stp	x0, x1, [sp]
ffffff8000085298:	910003e8 	mov	x8, sp
ffffff800008529c:	d0ffffe9 	adrp	x9, ffffff8000083000 <handle_exception_el1+0x5a4>
ffffff80000852a0:	91180129 	add	x9, x9, #0x600
ffffff80000852a4:	b0000000 	adrp	x0, ffffff8000086000 <TCR_EL1_VALUE+0x968>
ffffff80000852a8:	91244800 	add	x0, x0, #0x912
ffffff80000852ac:	910043e1 	add	x1, sp, #0x10
ffffff80000852b0:	a90127e8 	stp	x8, x9, [sp, #16]
ffffff80000852b4:	94000022 	bl	ffffff800008533c <_ZN4core9panicking9panic_fmt17hf8c9ba6c2299d6edE>

ffffff80000852b8 <_ZN4core6result13unwrap_failed17h89589bbb6ce8ba23E>:
ffffff80000852b8:	d10143ff 	sub	sp, sp, #0x50
ffffff80000852bc:	a9047bfd 	stp	x29, x30, [sp, #64]
ffffff80000852c0:	910103fd 	add	x29, sp, #0x40
ffffff80000852c4:	910003e8 	mov	x8, sp
ffffff80000852c8:	d0ffffe9 	adrp	x9, ffffff8000083000 <handle_exception_el1+0x5a4>
ffffff80000852cc:	9118012a 	add	x10, x9, #0x600
ffffff80000852d0:	a9008be1 	stp	x1, x2, [sp, #8]
ffffff80000852d4:	d0ffffe9 	adrp	x9, ffffff8000083000 <handle_exception_el1+0x5a4>
ffffff80000852d8:	91178129 	add	x9, x9, #0x5e0
ffffff80000852dc:	f90003e0 	str	x0, [sp]
ffffff80000852e0:	b0000000 	adrp	x0, ffffff8000086000 <TCR_EL1_VALUE+0x968>
ffffff80000852e4:	91243800 	add	x0, x0, #0x90e
ffffff80000852e8:	a901a3e3 	stp	x3, x8, [sp, #24]
ffffff80000852ec:	910043e8 	add	x8, sp, #0x10
ffffff80000852f0:	910083e1 	add	x1, sp, #0x20
ffffff80000852f4:	aa0403e2 	mov	x2, x4
ffffff80000852f8:	a902a3ea 	stp	x10, x8, [sp, #40]
ffffff80000852fc:	f9001fe9 	str	x9, [sp, #56]
ffffff8000085300:	9400000f 	bl	ffffff800008533c <_ZN4core9panicking9panic_fmt17hf8c9ba6c2299d6edE>

ffffff8000085304 <_ZN4core9panicking18panic_bounds_check17h210ff946a1327b86E>:
ffffff8000085304:	d10103ff 	sub	sp, sp, #0x40
ffffff8000085308:	a9037bfd 	stp	x29, x30, [sp, #48]
ffffff800008530c:	9100c3fd 	add	x29, sp, #0x30
ffffff8000085310:	910023e8 	add	x8, sp, #0x8
ffffff8000085314:	d0ffffe9 	adrp	x9, ffffff8000083000 <handle_exception_el1+0x5a4>
ffffff8000085318:	91306129 	add	x9, x9, #0xc18
ffffff800008531c:	a90007e0 	stp	x0, x1, [sp]
ffffff8000085320:	b0000000 	adrp	x0, ffffff8000086000 <TCR_EL1_VALUE+0x968>
ffffff8000085324:	91284400 	add	x0, x0, #0xa11
ffffff8000085328:	a90127e8 	stp	x8, x9, [sp, #16]
ffffff800008532c:	910003e8 	mov	x8, sp
ffffff8000085330:	910043e1 	add	x1, sp, #0x10
ffffff8000085334:	a90227e8 	stp	x8, x9, [sp, #32]
ffffff8000085338:	94000001 	bl	ffffff800008533c <_ZN4core9panicking9panic_fmt17hf8c9ba6c2299d6edE>

ffffff800008533c <_ZN4core9panicking9panic_fmt17hf8c9ba6c2299d6edE>:
ffffff800008533c:	d10103ff 	sub	sp, sp, #0x40
ffffff8000085340:	a9037bfd 	stp	x29, x30, [sp, #48]
ffffff8000085344:	9100c3fd 	add	x29, sp, #0x30
ffffff8000085348:	910023e8 	add	x8, sp, #0x8
ffffff800008534c:	a90087e0 	stp	x0, x1, [sp, #8]
ffffff8000085350:	910063e0 	add	x0, sp, #0x18
ffffff8000085354:	a9018be8 	stp	x8, x2, [sp, #24]
ffffff8000085358:	52800028 	mov	w8, #0x1                   	// #1
ffffff800008535c:	790053e8 	strh	w8, [sp, #40]
ffffff8000085360:	97fff278 	bl	ffffff8000081d40 <_RNvCs1Y7DaGC1cwg_7___rustc17rust_begin_unwind>

ffffff8000085364 <_ZN73_$LT$core..panic..panic_info..PanicInfo$u20$as$u20$core..fmt..Display$GT$3fmt17h6ee159a4b0e4170eE>:
ffffff8000085364:	d101c3ff 	sub	sp, sp, #0x70
ffffff8000085368:	a9047bfd 	stp	x29, x30, [sp, #64]
ffffff800008536c:	a90557f6 	stp	x22, x21, [sp, #80]
ffffff8000085370:	a9064ff4 	stp	x20, x19, [sp, #96]
ffffff8000085374:	910103fd 	add	x29, sp, #0x40
ffffff8000085378:	a9404c34 	ldp	x20, x19, [x1]
ffffff800008537c:	aa0003f5 	mov	x21, x0
ffffff8000085380:	d0000001 	adrp	x1, ffffff8000087000 <TCR_EL1_VALUE+0x1968>
ffffff8000085384:	9115c821 	add	x1, x1, #0x572
ffffff8000085388:	52800182 	mov	w2, #0xc                   	// #12
ffffff800008538c:	f9400e76 	ldr	x22, [x19, #24]
ffffff8000085390:	aa1403e0 	mov	x0, x20
ffffff8000085394:	d63f02c0 	blr	x22
ffffff8000085398:	360000e0 	tbz	w0, #0, ffffff80000853b4 <_ZN73_$LT$core..panic..panic_info..PanicInfo$u20$as$u20$core..fmt..Display$GT$3fmt17h6ee159a4b0e4170eE+0x50>
ffffff800008539c:	52800020 	mov	w0, #0x1                   	// #1
ffffff80000853a0:	a9464ff4 	ldp	x20, x19, [sp, #96]
ffffff80000853a4:	a94557f6 	ldp	x22, x21, [sp, #80]
ffffff80000853a8:	a9447bfd 	ldp	x29, x30, [sp, #64]
ffffff80000853ac:	9101c3ff 	add	sp, sp, #0x70
ffffff80000853b0:	d65f03c0 	ret
ffffff80000853b4:	f94006a8 	ldr	x8, [x21, #8]
ffffff80000853b8:	910003e9 	mov	x9, sp
ffffff80000853bc:	d0ffffea 	adrp	x10, ffffff8000083000 <handle_exception_el1+0x5a4>
ffffff80000853c0:	9118014a 	add	x10, x10, #0x600
ffffff80000853c4:	d0ffffeb 	adrp	x11, ffffff8000083000 <handle_exception_el1+0x5a4>
ffffff80000853c8:	912ee16b 	add	x11, x11, #0xbb8
ffffff80000853cc:	a9012be9 	stp	x9, x10, [sp, #16]
ffffff80000853d0:	9100410a 	add	x10, x8, #0x10
ffffff80000853d4:	f9400109 	ldr	x9, [x8]
ffffff80000853d8:	f90013ea 	str	x10, [sp, #32]
ffffff80000853dc:	f940050a 	ldr	x10, [x8, #8]
ffffff80000853e0:	91005108 	add	x8, x8, #0x14
ffffff80000853e4:	b0000002 	adrp	x2, ffffff8000086000 <TCR_EL1_VALUE+0x968>
ffffff80000853e8:	91326842 	add	x2, x2, #0xc9a
ffffff80000853ec:	910043e3 	add	x3, sp, #0x10
ffffff80000853f0:	aa1403e0 	mov	x0, x20
ffffff80000853f4:	aa1303e1 	mov	x1, x19
ffffff80000853f8:	a9002be9 	stp	x9, x10, [sp]
ffffff80000853fc:	a902a3eb 	stp	x11, x8, [sp, #40]
ffffff8000085400:	f9001feb 	str	x11, [sp, #56]
ffffff8000085404:	97fffa59 	bl	ffffff8000083d68 <_ZN4core3fmt5write17h4e09d17c17eebf64E>
ffffff8000085408:	360000e0 	tbz	w0, #0, ffffff8000085424 <_ZN73_$LT$core..panic..panic_info..PanicInfo$u20$as$u20$core..fmt..Display$GT$3fmt17h6ee159a4b0e4170eE+0xc0>
ffffff800008540c:	52800020 	mov	w0, #0x1                   	// #1
ffffff8000085410:	a9464ff4 	ldp	x20, x19, [sp, #96]
ffffff8000085414:	a94557f6 	ldp	x22, x21, [sp, #80]
ffffff8000085418:	a9447bfd 	ldp	x29, x30, [sp, #64]
ffffff800008541c:	9101c3ff 	add	sp, sp, #0x70
ffffff8000085420:	d65f03c0 	ret
ffffff8000085424:	d0000001 	adrp	x1, ffffff8000087000 <TCR_EL1_VALUE+0x1968>
ffffff8000085428:	9115f821 	add	x1, x1, #0x57e
ffffff800008542c:	aa1403e0 	mov	x0, x20
ffffff8000085430:	52800042 	mov	w2, #0x2                   	// #2
ffffff8000085434:	d63f02c0 	blr	x22
ffffff8000085438:	360000e0 	tbz	w0, #0, ffffff8000085454 <_ZN73_$LT$core..panic..panic_info..PanicInfo$u20$as$u20$core..fmt..Display$GT$3fmt17h6ee159a4b0e4170eE+0xf0>
ffffff800008543c:	52800020 	mov	w0, #0x1                   	// #1
ffffff8000085440:	a9464ff4 	ldp	x20, x19, [sp, #96]
ffffff8000085444:	a94557f6 	ldp	x22, x21, [sp, #80]
ffffff8000085448:	a9447bfd 	ldp	x29, x30, [sp, #64]
ffffff800008544c:	9101c3ff 	add	sp, sp, #0x70
ffffff8000085450:	d65f03c0 	ret
ffffff8000085454:	f94002a8 	ldr	x8, [x21]
ffffff8000085458:	aa1403e0 	mov	x0, x20
ffffff800008545c:	aa1303e1 	mov	x1, x19
ffffff8000085460:	a9400d02 	ldp	x2, x3, [x8]
ffffff8000085464:	97fffa41 	bl	ffffff8000083d68 <_ZN4core3fmt5write17h4e09d17c17eebf64E>
ffffff8000085468:	a9464ff4 	ldp	x20, x19, [sp, #96]
ffffff800008546c:	a94557f6 	ldp	x22, x21, [sp, #80]
ffffff8000085470:	a9447bfd 	ldp	x29, x30, [sp, #64]
ffffff8000085474:	9101c3ff 	add	sp, sp, #0x70
ffffff8000085478:	d65f03c0 	ret

ffffff800008547c <memcpy>:
ffffff800008547c:	f100405f 	cmp	x2, #0x10
ffffff8000085480:	54000723 	b.cc	ffffff8000085564 <memcpy+0xe8>  // b.lo, b.ul, b.last
ffffff8000085484:	cb0003ec 	neg	x12, x0
ffffff8000085488:	92400988 	and	x8, x12, #0x7
ffffff800008548c:	8b080009 	add	x9, x0, x8
ffffff8000085490:	eb09001f 	cmp	x0, x9
ffffff8000085494:	54000422 	b.cs	ffffff8000085518 <memcpy+0x9c>  // b.hs, b.nlast
ffffff8000085498:	f100111f 	cmp	x8, #0x4
ffffff800008549c:	aa0003ea 	mov	x10, x0
ffffff80000854a0:	aa0103eb 	mov	x11, x1
ffffff80000854a4:	54000323 	b.cc	ffffff8000085508 <memcpy+0x8c>  // b.lo, b.ul, b.last
ffffff80000854a8:	cb01000a 	sub	x10, x0, x1
ffffff80000854ac:	aa0103eb 	mov	x11, x1
ffffff80000854b0:	f1007d5f 	cmp	x10, #0x1f
ffffff80000854b4:	aa0003ea 	mov	x10, x0
ffffff80000854b8:	54000289 	b.ls	ffffff8000085508 <memcpy+0x8c>  // b.plast
ffffff80000854bc:	927e018c 	and	x12, x12, #0x4
ffffff80000854c0:	aa0003ed 	mov	x13, x0
ffffff80000854c4:	aa0103ee 	mov	x14, x1
ffffff80000854c8:	8b0c000a 	add	x10, x0, x12
ffffff80000854cc:	8b0c002b 	add	x11, x1, x12
ffffff80000854d0:	aa0c03ef 	mov	x15, x12
ffffff80000854d4:	39400dd0 	ldrb	w16, [x14, #3]
ffffff80000854d8:	394009d1 	ldrb	w17, [x14, #2]
ffffff80000854dc:	f10011ef 	subs	x15, x15, #0x4
ffffff80000854e0:	394001d2 	ldrb	w18, [x14]
ffffff80000854e4:	394005c3 	ldrb	w3, [x14, #1]
ffffff80000854e8:	910011ce 	add	x14, x14, #0x4
ffffff80000854ec:	39000db0 	strb	w16, [x13, #3]
ffffff80000854f0:	390009b1 	strb	w17, [x13, #2]
ffffff80000854f4:	390005a3 	strb	w3, [x13, #1]
ffffff80000854f8:	380045b2 	strb	w18, [x13], #4
ffffff80000854fc:	54fffec1 	b.ne	ffffff80000854d4 <memcpy+0x58>  // b.any
ffffff8000085500:	eb0c011f 	cmp	x8, x12
ffffff8000085504:	540000a0 	b.eq	ffffff8000085518 <memcpy+0x9c>  // b.none
ffffff8000085508:	3840156c 	ldrb	w12, [x11], #1
ffffff800008550c:	3800154c 	strb	w12, [x10], #1
ffffff8000085510:	eb09015f 	cmp	x10, x9
ffffff8000085514:	54ffffa1 	b.ne	ffffff8000085508 <memcpy+0x8c>  // b.any
ffffff8000085518:	cb08004b 	sub	x11, x2, x8
ffffff800008551c:	8b08002a 	add	x10, x1, x8
ffffff8000085520:	927df16c 	and	x12, x11, #0xfffffffffffffff8
ffffff8000085524:	f240095f 	tst	x10, #0x7
ffffff8000085528:	8b0c0128 	add	x8, x9, x12
ffffff800008552c:	540007a1 	b.ne	ffffff8000085620 <memcpy+0x1a4>  // b.any
ffffff8000085530:	eb08013f 	cmp	x9, x8
ffffff8000085534:	540000c2 	b.cs	ffffff800008554c <memcpy+0xd0>  // b.hs, b.nlast
ffffff8000085538:	aa0a03ed 	mov	x13, x10
ffffff800008553c:	f84085ae 	ldr	x14, [x13], #8
ffffff8000085540:	f800852e 	str	x14, [x9], #8
ffffff8000085544:	eb08013f 	cmp	x9, x8
ffffff8000085548:	54ffffa3 	b.cc	ffffff800008553c <memcpy+0xc0>  // b.lo, b.ul, b.last
ffffff800008554c:	8b0c0141 	add	x1, x10, x12
ffffff8000085550:	92400962 	and	x2, x11, #0x7
ffffff8000085554:	8b020109 	add	x9, x8, x2
ffffff8000085558:	eb09011f 	cmp	x8, x9
ffffff800008555c:	540000c3 	b.cc	ffffff8000085574 <memcpy+0xf8>  // b.lo, b.ul, b.last
ffffff8000085560:	1400002f 	b	ffffff800008561c <memcpy+0x1a0>
ffffff8000085564:	aa0003e8 	mov	x8, x0
ffffff8000085568:	8b020009 	add	x9, x0, x2
ffffff800008556c:	eb09001f 	cmp	x0, x9
ffffff8000085570:	54000562 	b.cs	ffffff800008561c <memcpy+0x1a0>  // b.hs, b.nlast
ffffff8000085574:	f100105f 	cmp	x2, #0x4
ffffff8000085578:	540004a3 	b.cc	ffffff800008560c <memcpy+0x190>  // b.lo, b.ul, b.last
ffffff800008557c:	cb01010a 	sub	x10, x8, x1
ffffff8000085580:	f1007d5f 	cmp	x10, #0x1f
ffffff8000085584:	54000449 	b.ls	ffffff800008560c <memcpy+0x190>  // b.plast
ffffff8000085588:	39400c2a 	ldrb	w10, [x1, #3]
ffffff800008558c:	3940082b 	ldrb	w11, [x1, #2]
ffffff8000085590:	3940002c 	ldrb	w12, [x1]
ffffff8000085594:	3940042d 	ldrb	w13, [x1, #1]
ffffff8000085598:	39000d0a 	strb	w10, [x8, #3]
ffffff800008559c:	927e044a 	and	x10, x2, #0xc
ffffff80000855a0:	f100115f 	cmp	x10, #0x4
ffffff80000855a4:	3900090b 	strb	w11, [x8, #2]
ffffff80000855a8:	3900050d 	strb	w13, [x8, #1]
ffffff80000855ac:	3900010c 	strb	w12, [x8]
ffffff80000855b0:	54000260 	b.eq	ffffff80000855fc <memcpy+0x180>  // b.none
ffffff80000855b4:	39401c2b 	ldrb	w11, [x1, #7]
ffffff80000855b8:	3940182c 	ldrb	w12, [x1, #6]
ffffff80000855bc:	f100215f 	cmp	x10, #0x8
ffffff80000855c0:	3940102d 	ldrb	w13, [x1, #4]
ffffff80000855c4:	3940142e 	ldrb	w14, [x1, #5]
ffffff80000855c8:	39001d0b 	strb	w11, [x8, #7]
ffffff80000855cc:	3900190c 	strb	w12, [x8, #6]
ffffff80000855d0:	3900150e 	strb	w14, [x8, #5]
ffffff80000855d4:	3900110d 	strb	w13, [x8, #4]
ffffff80000855d8:	54000120 	b.eq	ffffff80000855fc <memcpy+0x180>  // b.none
ffffff80000855dc:	39402c2b 	ldrb	w11, [x1, #11]
ffffff80000855e0:	3940282c 	ldrb	w12, [x1, #10]
ffffff80000855e4:	3940202d 	ldrb	w13, [x1, #8]
ffffff80000855e8:	3940242e 	ldrb	w14, [x1, #9]
ffffff80000855ec:	39002d0b 	strb	w11, [x8, #11]
ffffff80000855f0:	3900290c 	strb	w12, [x8, #10]
ffffff80000855f4:	3900250e 	strb	w14, [x8, #9]
ffffff80000855f8:	3900210d 	strb	w13, [x8, #8]
ffffff80000855fc:	eb0a005f 	cmp	x2, x10
ffffff8000085600:	540000e0 	b.eq	ffffff800008561c <memcpy+0x1a0>  // b.none
ffffff8000085604:	8b0a0108 	add	x8, x8, x10
ffffff8000085608:	8b0a0021 	add	x1, x1, x10
ffffff800008560c:	3840142a 	ldrb	w10, [x1], #1
ffffff8000085610:	3800150a 	strb	w10, [x8], #1
ffffff8000085614:	eb09011f 	cmp	x8, x9
ffffff8000085618:	54ffffa1 	b.ne	ffffff800008560c <memcpy+0x190>  // b.any
ffffff800008561c:	d65f03c0 	ret
ffffff8000085620:	eb08013f 	cmp	x9, x8
ffffff8000085624:	54fff942 	b.cs	ffffff800008554c <memcpy+0xd0>  // b.hs, b.nlast
ffffff8000085628:	aa0a03ed 	mov	x13, x10
ffffff800008562c:	aa0d03f0 	mov	x16, x13
ffffff8000085630:	394009af 	ldrb	w15, [x13, #2]
ffffff8000085634:	394005ae 	ldrb	w14, [x13, #1]
ffffff8000085638:	38404e11 	ldrb	w17, [x16, #4]!
ffffff800008563c:	39400a12 	ldrb	w18, [x16, #2]
ffffff8000085640:	394001a1 	ldrb	w1, [x13]
ffffff8000085644:	39400da2 	ldrb	w2, [x13, #3]
ffffff8000085648:	d370bdef 	lsl	x15, x15, #16
ffffff800008564c:	394015a3 	ldrb	w3, [x13, #5]
ffffff8000085650:	39400e10 	ldrb	w16, [x16, #3]
ffffff8000085654:	53103e52 	lsl	w18, w18, #16
ffffff8000085658:	aa0e202e 	orr	x14, x1, x14, lsl #8
ffffff800008565c:	aa0261ef 	orr	x15, x15, x2, lsl #24
ffffff8000085660:	910021ad 	add	x13, x13, #0x8
ffffff8000085664:	2a032231 	orr	w17, w17, w3, lsl #8
ffffff8000085668:	2a106250 	orr	w16, w18, w16, lsl #24
ffffff800008566c:	aa0e01ee 	orr	x14, x15, x14
ffffff8000085670:	2a11020f 	orr	w15, w16, w17
ffffff8000085674:	aa0f81ce 	orr	x14, x14, x15, lsl #32
ffffff8000085678:	f800852e 	str	x14, [x9], #8
ffffff800008567c:	eb08013f 	cmp	x9, x8
ffffff8000085680:	54fffd63 	b.cc	ffffff800008562c <memcpy+0x1b0>  // b.lo, b.ul, b.last
ffffff8000085684:	17ffffb2 	b	ffffff800008554c <memcpy+0xd0>
